
ctarget:     file format elf64-x86-64


Disassembly of section .init:

0000000000001000 <_init>:
    1000:	f3 0f 1e fa          	endbr64 
    1004:	48 83 ec 08          	sub    $0x8,%rsp
    1008:	48 8b 05 d9 5f 00 00 	mov    0x5fd9(%rip),%rax        # 6fe8 <__gmon_start__>
    100f:	48 85 c0             	test   %rax,%rax
    1012:	74 02                	je     1016 <_init+0x16>
    1014:	ff d0                	callq  *%rax
    1016:	48 83 c4 08          	add    $0x8,%rsp
    101a:	c3                   	retq   

Disassembly of section .plt:

0000000000001020 <.plt>:
    1020:	ff 35 9a 5e 00 00    	pushq  0x5e9a(%rip)        # 6ec0 <_GLOBAL_OFFSET_TABLE_+0x8>
    1026:	f2 ff 25 9b 5e 00 00 	bnd jmpq *0x5e9b(%rip)        # 6ec8 <_GLOBAL_OFFSET_TABLE_+0x10>
    102d:	0f 1f 00             	nopl   (%rax)
    1030:	f3 0f 1e fa          	endbr64 
    1034:	68 00 00 00 00       	pushq  $0x0
    1039:	f2 e9 e1 ff ff ff    	bnd jmpq 1020 <.plt>
    103f:	90                   	nop
    1040:	f3 0f 1e fa          	endbr64 
    1044:	68 01 00 00 00       	pushq  $0x1
    1049:	f2 e9 d1 ff ff ff    	bnd jmpq 1020 <.plt>
    104f:	90                   	nop
    1050:	f3 0f 1e fa          	endbr64 
    1054:	68 02 00 00 00       	pushq  $0x2
    1059:	f2 e9 c1 ff ff ff    	bnd jmpq 1020 <.plt>
    105f:	90                   	nop
    1060:	f3 0f 1e fa          	endbr64 
    1064:	68 03 00 00 00       	pushq  $0x3
    1069:	f2 e9 b1 ff ff ff    	bnd jmpq 1020 <.plt>
    106f:	90                   	nop
    1070:	f3 0f 1e fa          	endbr64 
    1074:	68 04 00 00 00       	pushq  $0x4
    1079:	f2 e9 a1 ff ff ff    	bnd jmpq 1020 <.plt>
    107f:	90                   	nop
    1080:	f3 0f 1e fa          	endbr64 
    1084:	68 05 00 00 00       	pushq  $0x5
    1089:	f2 e9 91 ff ff ff    	bnd jmpq 1020 <.plt>
    108f:	90                   	nop
    1090:	f3 0f 1e fa          	endbr64 
    1094:	68 06 00 00 00       	pushq  $0x6
    1099:	f2 e9 81 ff ff ff    	bnd jmpq 1020 <.plt>
    109f:	90                   	nop
    10a0:	f3 0f 1e fa          	endbr64 
    10a4:	68 07 00 00 00       	pushq  $0x7
    10a9:	f2 e9 71 ff ff ff    	bnd jmpq 1020 <.plt>
    10af:	90                   	nop
    10b0:	f3 0f 1e fa          	endbr64 
    10b4:	68 08 00 00 00       	pushq  $0x8
    10b9:	f2 e9 61 ff ff ff    	bnd jmpq 1020 <.plt>
    10bf:	90                   	nop
    10c0:	f3 0f 1e fa          	endbr64 
    10c4:	68 09 00 00 00       	pushq  $0x9
    10c9:	f2 e9 51 ff ff ff    	bnd jmpq 1020 <.plt>
    10cf:	90                   	nop
    10d0:	f3 0f 1e fa          	endbr64 
    10d4:	68 0a 00 00 00       	pushq  $0xa
    10d9:	f2 e9 41 ff ff ff    	bnd jmpq 1020 <.plt>
    10df:	90                   	nop
    10e0:	f3 0f 1e fa          	endbr64 
    10e4:	68 0b 00 00 00       	pushq  $0xb
    10e9:	f2 e9 31 ff ff ff    	bnd jmpq 1020 <.plt>
    10ef:	90                   	nop
    10f0:	f3 0f 1e fa          	endbr64 
    10f4:	68 0c 00 00 00       	pushq  $0xc
    10f9:	f2 e9 21 ff ff ff    	bnd jmpq 1020 <.plt>
    10ff:	90                   	nop
    1100:	f3 0f 1e fa          	endbr64 
    1104:	68 0d 00 00 00       	pushq  $0xd
    1109:	f2 e9 11 ff ff ff    	bnd jmpq 1020 <.plt>
    110f:	90                   	nop
    1110:	f3 0f 1e fa          	endbr64 
    1114:	68 0e 00 00 00       	pushq  $0xe
    1119:	f2 e9 01 ff ff ff    	bnd jmpq 1020 <.plt>
    111f:	90                   	nop
    1120:	f3 0f 1e fa          	endbr64 
    1124:	68 0f 00 00 00       	pushq  $0xf
    1129:	f2 e9 f1 fe ff ff    	bnd jmpq 1020 <.plt>
    112f:	90                   	nop
    1130:	f3 0f 1e fa          	endbr64 
    1134:	68 10 00 00 00       	pushq  $0x10
    1139:	f2 e9 e1 fe ff ff    	bnd jmpq 1020 <.plt>
    113f:	90                   	nop
    1140:	f3 0f 1e fa          	endbr64 
    1144:	68 11 00 00 00       	pushq  $0x11
    1149:	f2 e9 d1 fe ff ff    	bnd jmpq 1020 <.plt>
    114f:	90                   	nop
    1150:	f3 0f 1e fa          	endbr64 
    1154:	68 12 00 00 00       	pushq  $0x12
    1159:	f2 e9 c1 fe ff ff    	bnd jmpq 1020 <.plt>
    115f:	90                   	nop
    1160:	f3 0f 1e fa          	endbr64 
    1164:	68 13 00 00 00       	pushq  $0x13
    1169:	f2 e9 b1 fe ff ff    	bnd jmpq 1020 <.plt>
    116f:	90                   	nop
    1170:	f3 0f 1e fa          	endbr64 
    1174:	68 14 00 00 00       	pushq  $0x14
    1179:	f2 e9 a1 fe ff ff    	bnd jmpq 1020 <.plt>
    117f:	90                   	nop
    1180:	f3 0f 1e fa          	endbr64 
    1184:	68 15 00 00 00       	pushq  $0x15
    1189:	f2 e9 91 fe ff ff    	bnd jmpq 1020 <.plt>
    118f:	90                   	nop
    1190:	f3 0f 1e fa          	endbr64 
    1194:	68 16 00 00 00       	pushq  $0x16
    1199:	f2 e9 81 fe ff ff    	bnd jmpq 1020 <.plt>
    119f:	90                   	nop
    11a0:	f3 0f 1e fa          	endbr64 
    11a4:	68 17 00 00 00       	pushq  $0x17
    11a9:	f2 e9 71 fe ff ff    	bnd jmpq 1020 <.plt>
    11af:	90                   	nop
    11b0:	f3 0f 1e fa          	endbr64 
    11b4:	68 18 00 00 00       	pushq  $0x18
    11b9:	f2 e9 61 fe ff ff    	bnd jmpq 1020 <.plt>
    11bf:	90                   	nop
    11c0:	f3 0f 1e fa          	endbr64 
    11c4:	68 19 00 00 00       	pushq  $0x19
    11c9:	f2 e9 51 fe ff ff    	bnd jmpq 1020 <.plt>
    11cf:	90                   	nop
    11d0:	f3 0f 1e fa          	endbr64 
    11d4:	68 1a 00 00 00       	pushq  $0x1a
    11d9:	f2 e9 41 fe ff ff    	bnd jmpq 1020 <.plt>
    11df:	90                   	nop
    11e0:	f3 0f 1e fa          	endbr64 
    11e4:	68 1b 00 00 00       	pushq  $0x1b
    11e9:	f2 e9 31 fe ff ff    	bnd jmpq 1020 <.plt>
    11ef:	90                   	nop
    11f0:	f3 0f 1e fa          	endbr64 
    11f4:	68 1c 00 00 00       	pushq  $0x1c
    11f9:	f2 e9 21 fe ff ff    	bnd jmpq 1020 <.plt>
    11ff:	90                   	nop
    1200:	f3 0f 1e fa          	endbr64 
    1204:	68 1d 00 00 00       	pushq  $0x1d
    1209:	f2 e9 11 fe ff ff    	bnd jmpq 1020 <.plt>
    120f:	90                   	nop
    1210:	f3 0f 1e fa          	endbr64 
    1214:	68 1e 00 00 00       	pushq  $0x1e
    1219:	f2 e9 01 fe ff ff    	bnd jmpq 1020 <.plt>
    121f:	90                   	nop
    1220:	f3 0f 1e fa          	endbr64 
    1224:	68 1f 00 00 00       	pushq  $0x1f
    1229:	f2 e9 f1 fd ff ff    	bnd jmpq 1020 <.plt>
    122f:	90                   	nop
    1230:	f3 0f 1e fa          	endbr64 
    1234:	68 20 00 00 00       	pushq  $0x20
    1239:	f2 e9 e1 fd ff ff    	bnd jmpq 1020 <.plt>
    123f:	90                   	nop

Disassembly of section .plt.got:

0000000000001240 <__cxa_finalize@plt>:
    1240:	f3 0f 1e fa          	endbr64 
    1244:	f2 ff 25 ad 5d 00 00 	bnd jmpq *0x5dad(%rip)        # 6ff8 <__cxa_finalize@GLIBC_2.2.5>
    124b:	0f 1f 44 00 00       	nopl   0x0(%rax,%rax,1)

Disassembly of section .plt.sec:

0000000000001250 <strcasecmp@plt>:
    1250:	f3 0f 1e fa          	endbr64 
    1254:	f2 ff 25 75 5c 00 00 	bnd jmpq *0x5c75(%rip)        # 6ed0 <strcasecmp@GLIBC_2.2.5>
    125b:	0f 1f 44 00 00       	nopl   0x0(%rax,%rax,1)

0000000000001260 <__errno_location@plt>:
    1260:	f3 0f 1e fa          	endbr64 
    1264:	f2 ff 25 6d 5c 00 00 	bnd jmpq *0x5c6d(%rip)        # 6ed8 <__errno_location@GLIBC_2.2.5>
    126b:	0f 1f 44 00 00       	nopl   0x0(%rax,%rax,1)

0000000000001270 <srandom@plt>:
    1270:	f3 0f 1e fa          	endbr64 
    1274:	f2 ff 25 65 5c 00 00 	bnd jmpq *0x5c65(%rip)        # 6ee0 <srandom@GLIBC_2.2.5>
    127b:	0f 1f 44 00 00       	nopl   0x0(%rax,%rax,1)

0000000000001280 <strncmp@plt>:
    1280:	f3 0f 1e fa          	endbr64 
    1284:	f2 ff 25 5d 5c 00 00 	bnd jmpq *0x5c5d(%rip)        # 6ee8 <strncmp@GLIBC_2.2.5>
    128b:	0f 1f 44 00 00       	nopl   0x0(%rax,%rax,1)

0000000000001290 <strcpy@plt>:
    1290:	f3 0f 1e fa          	endbr64 
    1294:	f2 ff 25 55 5c 00 00 	bnd jmpq *0x5c55(%rip)        # 6ef0 <strcpy@GLIBC_2.2.5>
    129b:	0f 1f 44 00 00       	nopl   0x0(%rax,%rax,1)

00000000000012a0 <puts@plt>:
    12a0:	f3 0f 1e fa          	endbr64 
    12a4:	f2 ff 25 4d 5c 00 00 	bnd jmpq *0x5c4d(%rip)        # 6ef8 <puts@GLIBC_2.2.5>
    12ab:	0f 1f 44 00 00       	nopl   0x0(%rax,%rax,1)

00000000000012b0 <write@plt>:
    12b0:	f3 0f 1e fa          	endbr64 
    12b4:	f2 ff 25 45 5c 00 00 	bnd jmpq *0x5c45(%rip)        # 6f00 <write@GLIBC_2.2.5>
    12bb:	0f 1f 44 00 00       	nopl   0x0(%rax,%rax,1)

00000000000012c0 <__stack_chk_fail@plt>:
    12c0:	f3 0f 1e fa          	endbr64 
    12c4:	f2 ff 25 3d 5c 00 00 	bnd jmpq *0x5c3d(%rip)        # 6f08 <__stack_chk_fail@GLIBC_2.4>
    12cb:	0f 1f 44 00 00       	nopl   0x0(%rax,%rax,1)

00000000000012d0 <mmap@plt>:
    12d0:	f3 0f 1e fa          	endbr64 
    12d4:	f2 ff 25 35 5c 00 00 	bnd jmpq *0x5c35(%rip)        # 6f10 <mmap@GLIBC_2.2.5>
    12db:	0f 1f 44 00 00       	nopl   0x0(%rax,%rax,1)

00000000000012e0 <memset@plt>:
    12e0:	f3 0f 1e fa          	endbr64 
    12e4:	f2 ff 25 2d 5c 00 00 	bnd jmpq *0x5c2d(%rip)        # 6f18 <memset@GLIBC_2.2.5>
    12eb:	0f 1f 44 00 00       	nopl   0x0(%rax,%rax,1)

00000000000012f0 <alarm@plt>:
    12f0:	f3 0f 1e fa          	endbr64 
    12f4:	f2 ff 25 25 5c 00 00 	bnd jmpq *0x5c25(%rip)        # 6f20 <alarm@GLIBC_2.2.5>
    12fb:	0f 1f 44 00 00       	nopl   0x0(%rax,%rax,1)

0000000000001300 <close@plt>:
    1300:	f3 0f 1e fa          	endbr64 
    1304:	f2 ff 25 1d 5c 00 00 	bnd jmpq *0x5c1d(%rip)        # 6f28 <close@GLIBC_2.2.5>
    130b:	0f 1f 44 00 00       	nopl   0x0(%rax,%rax,1)

0000000000001310 <read@plt>:
    1310:	f3 0f 1e fa          	endbr64 
    1314:	f2 ff 25 15 5c 00 00 	bnd jmpq *0x5c15(%rip)        # 6f30 <read@GLIBC_2.2.5>
    131b:	0f 1f 44 00 00       	nopl   0x0(%rax,%rax,1)

0000000000001320 <signal@plt>:
    1320:	f3 0f 1e fa          	endbr64 
    1324:	f2 ff 25 0d 5c 00 00 	bnd jmpq *0x5c0d(%rip)        # 6f38 <signal@GLIBC_2.2.5>
    132b:	0f 1f 44 00 00       	nopl   0x0(%rax,%rax,1)

0000000000001330 <gethostbyname@plt>:
    1330:	f3 0f 1e fa          	endbr64 
    1334:	f2 ff 25 05 5c 00 00 	bnd jmpq *0x5c05(%rip)        # 6f40 <gethostbyname@GLIBC_2.2.5>
    133b:	0f 1f 44 00 00       	nopl   0x0(%rax,%rax,1)

0000000000001340 <__memmove_chk@plt>:
    1340:	f3 0f 1e fa          	endbr64 
    1344:	f2 ff 25 fd 5b 00 00 	bnd jmpq *0x5bfd(%rip)        # 6f48 <__memmove_chk@GLIBC_2.3.4>
    134b:	0f 1f 44 00 00       	nopl   0x0(%rax,%rax,1)

0000000000001350 <strtol@plt>:
    1350:	f3 0f 1e fa          	endbr64 
    1354:	f2 ff 25 f5 5b 00 00 	bnd jmpq *0x5bf5(%rip)        # 6f50 <strtol@GLIBC_2.2.5>
    135b:	0f 1f 44 00 00       	nopl   0x0(%rax,%rax,1)

0000000000001360 <memcpy@plt>:
    1360:	f3 0f 1e fa          	endbr64 
    1364:	f2 ff 25 ed 5b 00 00 	bnd jmpq *0x5bed(%rip)        # 6f58 <memcpy@GLIBC_2.14>
    136b:	0f 1f 44 00 00       	nopl   0x0(%rax,%rax,1)

0000000000001370 <time@plt>:
    1370:	f3 0f 1e fa          	endbr64 
    1374:	f2 ff 25 e5 5b 00 00 	bnd jmpq *0x5be5(%rip)        # 6f60 <time@GLIBC_2.2.5>
    137b:	0f 1f 44 00 00       	nopl   0x0(%rax,%rax,1)

0000000000001380 <random@plt>:
    1380:	f3 0f 1e fa          	endbr64 
    1384:	f2 ff 25 dd 5b 00 00 	bnd jmpq *0x5bdd(%rip)        # 6f68 <random@GLIBC_2.2.5>
    138b:	0f 1f 44 00 00       	nopl   0x0(%rax,%rax,1)

0000000000001390 <__isoc99_sscanf@plt>:
    1390:	f3 0f 1e fa          	endbr64 
    1394:	f2 ff 25 d5 5b 00 00 	bnd jmpq *0x5bd5(%rip)        # 6f70 <__isoc99_sscanf@GLIBC_2.7>
    139b:	0f 1f 44 00 00       	nopl   0x0(%rax,%rax,1)

00000000000013a0 <munmap@plt>:
    13a0:	f3 0f 1e fa          	endbr64 
    13a4:	f2 ff 25 cd 5b 00 00 	bnd jmpq *0x5bcd(%rip)        # 6f78 <munmap@GLIBC_2.2.5>
    13ab:	0f 1f 44 00 00       	nopl   0x0(%rax,%rax,1)

00000000000013b0 <__printf_chk@plt>:
    13b0:	f3 0f 1e fa          	endbr64 
    13b4:	f2 ff 25 c5 5b 00 00 	bnd jmpq *0x5bc5(%rip)        # 6f80 <__printf_chk@GLIBC_2.3.4>
    13bb:	0f 1f 44 00 00       	nopl   0x0(%rax,%rax,1)

00000000000013c0 <fopen@plt>:
    13c0:	f3 0f 1e fa          	endbr64 
    13c4:	f2 ff 25 bd 5b 00 00 	bnd jmpq *0x5bbd(%rip)        # 6f88 <fopen@GLIBC_2.2.5>
    13cb:	0f 1f 44 00 00       	nopl   0x0(%rax,%rax,1)

00000000000013d0 <getopt@plt>:
    13d0:	f3 0f 1e fa          	endbr64 
    13d4:	f2 ff 25 b5 5b 00 00 	bnd jmpq *0x5bb5(%rip)        # 6f90 <getopt@GLIBC_2.2.5>
    13db:	0f 1f 44 00 00       	nopl   0x0(%rax,%rax,1)

00000000000013e0 <strtoul@plt>:
    13e0:	f3 0f 1e fa          	endbr64 
    13e4:	f2 ff 25 ad 5b 00 00 	bnd jmpq *0x5bad(%rip)        # 6f98 <strtoul@GLIBC_2.2.5>
    13eb:	0f 1f 44 00 00       	nopl   0x0(%rax,%rax,1)

00000000000013f0 <gethostname@plt>:
    13f0:	f3 0f 1e fa          	endbr64 
    13f4:	f2 ff 25 a5 5b 00 00 	bnd jmpq *0x5ba5(%rip)        # 6fa0 <gethostname@GLIBC_2.2.5>
    13fb:	0f 1f 44 00 00       	nopl   0x0(%rax,%rax,1)

0000000000001400 <exit@plt>:
    1400:	f3 0f 1e fa          	endbr64 
    1404:	f2 ff 25 9d 5b 00 00 	bnd jmpq *0x5b9d(%rip)        # 6fa8 <exit@GLIBC_2.2.5>
    140b:	0f 1f 44 00 00       	nopl   0x0(%rax,%rax,1)

0000000000001410 <connect@plt>:
    1410:	f3 0f 1e fa          	endbr64 
    1414:	f2 ff 25 95 5b 00 00 	bnd jmpq *0x5b95(%rip)        # 6fb0 <connect@GLIBC_2.2.5>
    141b:	0f 1f 44 00 00       	nopl   0x0(%rax,%rax,1)

0000000000001420 <__fprintf_chk@plt>:
    1420:	f3 0f 1e fa          	endbr64 
    1424:	f2 ff 25 8d 5b 00 00 	bnd jmpq *0x5b8d(%rip)        # 6fb8 <__fprintf_chk@GLIBC_2.3.4>
    142b:	0f 1f 44 00 00       	nopl   0x0(%rax,%rax,1)

0000000000001430 <getc@plt>:
    1430:	f3 0f 1e fa          	endbr64 
    1434:	f2 ff 25 85 5b 00 00 	bnd jmpq *0x5b85(%rip)        # 6fc0 <getc@GLIBC_2.2.5>
    143b:	0f 1f 44 00 00       	nopl   0x0(%rax,%rax,1)

0000000000001440 <__sprintf_chk@plt>:
    1440:	f3 0f 1e fa          	endbr64 
    1444:	f2 ff 25 7d 5b 00 00 	bnd jmpq *0x5b7d(%rip)        # 6fc8 <__sprintf_chk@GLIBC_2.3.4>
    144b:	0f 1f 44 00 00       	nopl   0x0(%rax,%rax,1)

0000000000001450 <socket@plt>:
    1450:	f3 0f 1e fa          	endbr64 
    1454:	f2 ff 25 75 5b 00 00 	bnd jmpq *0x5b75(%rip)        # 6fd0 <socket@GLIBC_2.2.5>
    145b:	0f 1f 44 00 00       	nopl   0x0(%rax,%rax,1)

Disassembly of section .text:

0000000000001460 <_start>:
    1460:	f3 0f 1e fa          	endbr64 
    1464:	31 ed                	xor    %ebp,%ebp
    1466:	49 89 d1             	mov    %rdx,%r9
    1469:	5e                   	pop    %rsi
    146a:	48 89 e2             	mov    %rsp,%rdx
    146d:	48 83 e4 f0          	and    $0xfffffffffffffff0,%rsp
    1471:	50                   	push   %rax
    1472:	54                   	push   %rsp
    1473:	4c 8d 05 d6 21 00 00 	lea    0x21d6(%rip),%r8        # 3650 <__libc_csu_fini>
    147a:	48 8d 0d 5f 21 00 00 	lea    0x215f(%rip),%rcx        # 35e0 <__libc_csu_init>
    1481:	48 8d 3d e0 02 00 00 	lea    0x2e0(%rip),%rdi        # 1768 <main>
    1488:	ff 15 52 5b 00 00    	callq  *0x5b52(%rip)        # 6fe0 <__libc_start_main@GLIBC_2.2.5>
    148e:	f4                   	hlt    
    148f:	90                   	nop

0000000000001490 <deregister_tm_clones>:
    1490:	48 8d 3d d9 5e 00 00 	lea    0x5ed9(%rip),%rdi        # 7370 <__TMC_END__>
    1497:	48 8d 05 d2 5e 00 00 	lea    0x5ed2(%rip),%rax        # 7370 <__TMC_END__>
    149e:	48 39 f8             	cmp    %rdi,%rax
    14a1:	74 15                	je     14b8 <deregister_tm_clones+0x28>
    14a3:	48 8b 05 2e 5b 00 00 	mov    0x5b2e(%rip),%rax        # 6fd8 <_ITM_deregisterTMCloneTable>
    14aa:	48 85 c0             	test   %rax,%rax
    14ad:	74 09                	je     14b8 <deregister_tm_clones+0x28>
    14af:	ff e0                	jmpq   *%rax
    14b1:	0f 1f 80 00 00 00 00 	nopl   0x0(%rax)
    14b8:	c3                   	retq   
    14b9:	0f 1f 80 00 00 00 00 	nopl   0x0(%rax)

00000000000014c0 <register_tm_clones>:
    14c0:	48 8d 3d a9 5e 00 00 	lea    0x5ea9(%rip),%rdi        # 7370 <__TMC_END__>
    14c7:	48 8d 35 a2 5e 00 00 	lea    0x5ea2(%rip),%rsi        # 7370 <__TMC_END__>
    14ce:	48 29 fe             	sub    %rdi,%rsi
    14d1:	48 89 f0             	mov    %rsi,%rax
    14d4:	48 c1 ee 3f          	shr    $0x3f,%rsi
    14d8:	48 c1 f8 03          	sar    $0x3,%rax
    14dc:	48 01 c6             	add    %rax,%rsi
    14df:	48 d1 fe             	sar    %rsi
    14e2:	74 14                	je     14f8 <register_tm_clones+0x38>
    14e4:	48 8b 05 05 5b 00 00 	mov    0x5b05(%rip),%rax        # 6ff0 <_ITM_registerTMCloneTable>
    14eb:	48 85 c0             	test   %rax,%rax
    14ee:	74 08                	je     14f8 <register_tm_clones+0x38>
    14f0:	ff e0                	jmpq   *%rax
    14f2:	66 0f 1f 44 00 00    	nopw   0x0(%rax,%rax,1)
    14f8:	c3                   	retq   
    14f9:	0f 1f 80 00 00 00 00 	nopl   0x0(%rax)

0000000000001500 <__do_global_dtors_aux>:
    1500:	f3 0f 1e fa          	endbr64 
    1504:	80 3d 9d 5e 00 00 00 	cmpb   $0x0,0x5e9d(%rip)        # 73a8 <completed.8061>
    150b:	75 2b                	jne    1538 <__do_global_dtors_aux+0x38>
    150d:	55                   	push   %rbp
    150e:	48 83 3d e2 5a 00 00 	cmpq   $0x0,0x5ae2(%rip)        # 6ff8 <__cxa_finalize@GLIBC_2.2.5>
    1515:	00 
    1516:	48 89 e5             	mov    %rsp,%rbp
    1519:	74 0c                	je     1527 <__do_global_dtors_aux+0x27>
    151b:	48 8b 3d e6 5a 00 00 	mov    0x5ae6(%rip),%rdi        # 7008 <__dso_handle>
    1522:	e8 19 fd ff ff       	callq  1240 <__cxa_finalize@plt>
    1527:	e8 64 ff ff ff       	callq  1490 <deregister_tm_clones>
    152c:	c6 05 75 5e 00 00 01 	movb   $0x1,0x5e75(%rip)        # 73a8 <completed.8061>
    1533:	5d                   	pop    %rbp
    1534:	c3                   	retq   
    1535:	0f 1f 00             	nopl   (%rax)
    1538:	c3                   	retq   
    1539:	0f 1f 80 00 00 00 00 	nopl   0x0(%rax)

0000000000001540 <frame_dummy>:
    1540:	f3 0f 1e fa          	endbr64 
    1544:	e9 77 ff ff ff       	jmpq   14c0 <register_tm_clones>

0000000000001549 <usage>:
    1549:	50                   	push   %rax
    154a:	58                   	pop    %rax
    154b:	48 83 ec 08          	sub    $0x8,%rsp
    154f:	48 89 fa             	mov    %rdi,%rdx
    1552:	83 3d 8f 5e 00 00 00 	cmpl   $0x0,0x5e8f(%rip)        # 73e8 <is_checker>
    1559:	74 50                	je     15ab <usage+0x62>
    155b:	48 8d 35 a6 2a 00 00 	lea    0x2aa6(%rip),%rsi        # 4008 <_IO_stdin_used+0x8>
    1562:	bf 01 00 00 00       	mov    $0x1,%edi
    1567:	b8 00 00 00 00       	mov    $0x0,%eax
    156c:	e8 3f fe ff ff       	callq  13b0 <__printf_chk@plt>
    1571:	48 8d 3d c8 2a 00 00 	lea    0x2ac8(%rip),%rdi        # 4040 <_IO_stdin_used+0x40>
    1578:	e8 23 fd ff ff       	callq  12a0 <puts@plt>
    157d:	48 8d 3d f4 2b 00 00 	lea    0x2bf4(%rip),%rdi        # 4178 <_IO_stdin_used+0x178>
    1584:	e8 17 fd ff ff       	callq  12a0 <puts@plt>
    1589:	48 8d 3d d8 2a 00 00 	lea    0x2ad8(%rip),%rdi        # 4068 <_IO_stdin_used+0x68>
    1590:	e8 0b fd ff ff       	callq  12a0 <puts@plt>
    1595:	48 8d 3d f6 2b 00 00 	lea    0x2bf6(%rip),%rdi        # 4192 <_IO_stdin_used+0x192>
    159c:	e8 ff fc ff ff       	callq  12a0 <puts@plt>
    15a1:	bf 00 00 00 00       	mov    $0x0,%edi
    15a6:	e8 55 fe ff ff       	callq  1400 <exit@plt>
    15ab:	48 8d 35 fc 2b 00 00 	lea    0x2bfc(%rip),%rsi        # 41ae <_IO_stdin_used+0x1ae>
    15b2:	bf 01 00 00 00       	mov    $0x1,%edi
    15b7:	b8 00 00 00 00       	mov    $0x0,%eax
    15bc:	e8 ef fd ff ff       	callq  13b0 <__printf_chk@plt>
    15c1:	48 8d 3d c8 2a 00 00 	lea    0x2ac8(%rip),%rdi        # 4090 <_IO_stdin_used+0x90>
    15c8:	e8 d3 fc ff ff       	callq  12a0 <puts@plt>
    15cd:	48 8d 3d e4 2a 00 00 	lea    0x2ae4(%rip),%rdi        # 40b8 <_IO_stdin_used+0xb8>
    15d4:	e8 c7 fc ff ff       	callq  12a0 <puts@plt>
    15d9:	48 8d 3d ec 2b 00 00 	lea    0x2bec(%rip),%rdi        # 41cc <_IO_stdin_used+0x1cc>
    15e0:	e8 bb fc ff ff       	callq  12a0 <puts@plt>
    15e5:	eb ba                	jmp    15a1 <usage+0x58>

00000000000015e7 <initialize_target>:
    15e7:	55                   	push   %rbp
    15e8:	48 89 e5             	mov    %rsp,%rbp
    15eb:	41 54                	push   %r12
    15ed:	53                   	push   %rbx
    15ee:	48 83 e4 f0          	and    $0xfffffffffffffff0,%rsp
    15f2:	48 81 ec 00 10 00 00 	sub    $0x1000,%rsp
    15f9:	48 83 0c 24 00       	orq    $0x0,(%rsp)
    15fe:	48 81 ec 00 10 00 00 	sub    $0x1000,%rsp
    1605:	48 83 0c 24 00       	orq    $0x0,(%rsp)
    160a:	48 81 ec 10 01 00 00 	sub    $0x110,%rsp
    1611:	41 89 f4             	mov    %esi,%r12d
    1614:	64 48 8b 04 25 28 00 	mov    %fs:0x28,%rax
    161b:	00 00 
    161d:	48 89 84 24 08 21 00 	mov    %rax,0x2108(%rsp)
    1624:	00 
    1625:	31 c0                	xor    %eax,%eax
    1627:	89 3d ab 5d 00 00    	mov    %edi,0x5dab(%rip)        # 73d8 <check_level>
    162d:	8b 3d dd 59 00 00    	mov    0x59dd(%rip),%edi        # 7010 <target_id>
    1633:	e8 82 1f 00 00       	callq  35ba <gencookie>
    1638:	89 c7                	mov    %eax,%edi
    163a:	89 05 a4 5d 00 00    	mov    %eax,0x5da4(%rip)        # 73e4 <cookie>
    1640:	e8 75 1f 00 00       	callq  35ba <gencookie>
    1645:	89 05 95 5d 00 00    	mov    %eax,0x5d95(%rip)        # 73e0 <authkey>
    164b:	8b 05 bf 59 00 00    	mov    0x59bf(%rip),%eax        # 7010 <target_id>
    1651:	8d 78 01             	lea    0x1(%rax),%edi
    1654:	e8 17 fc ff ff       	callq  1270 <srandom@plt>
    1659:	e8 22 fd ff ff       	callq  1380 <random@plt>
    165e:	48 89 c7             	mov    %rax,%rdi
    1661:	e8 f2 02 00 00       	callq  1958 <scramble>
    1666:	89 c3                	mov    %eax,%ebx
    1668:	45 85 e4             	test   %r12d,%r12d
    166b:	75 53                	jne    16c0 <initialize_target+0xd9>
    166d:	b8 00 00 00 00       	mov    $0x0,%eax
    1672:	01 d8                	add    %ebx,%eax
    1674:	0f b7 c0             	movzwl %ax,%eax
    1677:	8d 04 c5 00 01 00 00 	lea    0x100(,%rax,8),%eax
    167e:	89 c0                	mov    %eax,%eax
    1680:	48 89 05 d9 5c 00 00 	mov    %rax,0x5cd9(%rip)        # 7360 <buf_offset>
    1687:	c6 05 7a 69 00 00 63 	movb   $0x63,0x697a(%rip)        # 8008 <target_prefix>
    168e:	83 3d d3 5c 00 00 00 	cmpl   $0x0,0x5cd3(%rip)        # 7368 <notify>
    1695:	74 09                	je     16a0 <initialize_target+0xb9>
    1697:	83 3d 4a 5d 00 00 00 	cmpl   $0x0,0x5d4a(%rip)        # 73e8 <is_checker>
    169e:	74 39                	je     16d9 <initialize_target+0xf2>
    16a0:	48 8b 84 24 08 21 00 	mov    0x2108(%rsp),%rax
    16a7:	00 
    16a8:	64 48 33 04 25 28 00 	xor    %fs:0x28,%rax
    16af:	00 00 
    16b1:	0f 85 ac 00 00 00    	jne    1763 <initialize_target+0x17c>
    16b7:	48 8d 65 f0          	lea    -0x10(%rbp),%rsp
    16bb:	5b                   	pop    %rbx
    16bc:	41 5c                	pop    %r12
    16be:	5d                   	pop    %rbp
    16bf:	c3                   	retq   
    16c0:	bf 00 00 00 00       	mov    $0x0,%edi
    16c5:	e8 a6 fc ff ff       	callq  1370 <time@plt>
    16ca:	48 89 c7             	mov    %rax,%rdi
    16cd:	e8 9e fb ff ff       	callq  1270 <srandom@plt>
    16d2:	e8 a9 fc ff ff       	callq  1380 <random@plt>
    16d7:	eb 99                	jmp    1672 <initialize_target+0x8b>
    16d9:	48 89 e7             	mov    %rsp,%rdi
    16dc:	be 00 01 00 00       	mov    $0x100,%esi
    16e1:	e8 0a fd ff ff       	callq  13f0 <gethostname@plt>
    16e6:	89 c3                	mov    %eax,%ebx
    16e8:	85 c0                	test   %eax,%eax
    16ea:	75 24                	jne    1710 <initialize_target+0x129>
    16ec:	48 63 c3             	movslq %ebx,%rax
    16ef:	48 8d 15 4a 59 00 00 	lea    0x594a(%rip),%rdx        # 7040 <host_table>
    16f6:	48 8b 3c c2          	mov    (%rdx,%rax,8),%rdi
    16fa:	48 85 ff             	test   %rdi,%rdi
    16fd:	74 27                	je     1726 <initialize_target+0x13f>
    16ff:	48 89 e6             	mov    %rsp,%rsi
    1702:	e8 49 fb ff ff       	callq  1250 <strcasecmp@plt>
    1707:	85 c0                	test   %eax,%eax
    1709:	74 1b                	je     1726 <initialize_target+0x13f>
    170b:	83 c3 01             	add    $0x1,%ebx
    170e:	eb dc                	jmp    16ec <initialize_target+0x105>
    1710:	48 8d 3d d1 29 00 00 	lea    0x29d1(%rip),%rdi        # 40e8 <_IO_stdin_used+0xe8>
    1717:	e8 84 fb ff ff       	callq  12a0 <puts@plt>
    171c:	bf 08 00 00 00       	mov    $0x8,%edi
    1721:	e8 da fc ff ff       	callq  1400 <exit@plt>
    1726:	48 8d bc 24 00 01 00 	lea    0x100(%rsp),%rdi
    172d:	00 
    172e:	e8 a6 1b 00 00       	callq  32d9 <init_driver>
    1733:	85 c0                	test   %eax,%eax
    1735:	0f 89 65 ff ff ff    	jns    16a0 <initialize_target+0xb9>
    173b:	48 8d 94 24 00 01 00 	lea    0x100(%rsp),%rdx
    1742:	00 
    1743:	48 8d 35 d6 29 00 00 	lea    0x29d6(%rip),%rsi        # 4120 <_IO_stdin_used+0x120>
    174a:	bf 01 00 00 00       	mov    $0x1,%edi
    174f:	b8 00 00 00 00       	mov    $0x0,%eax
    1754:	e8 57 fc ff ff       	callq  13b0 <__printf_chk@plt>
    1759:	bf 08 00 00 00       	mov    $0x8,%edi
    175e:	e8 9d fc ff ff       	callq  1400 <exit@plt>
    1763:	e8 58 fb ff ff       	callq  12c0 <__stack_chk_fail@plt>

0000000000001768 <main>:
    1768:	f3 0f 1e fa          	endbr64 
    176c:	41 56                	push   %r14
    176e:	41 55                	push   %r13
    1770:	41 54                	push   %r12
    1772:	55                   	push   %rbp
    1773:	53                   	push   %rbx
    1774:	89 fd                	mov    %edi,%ebp
    1776:	48 89 f3             	mov    %rsi,%rbx
    1779:	48 8d 35 7c 0d 00 00 	lea    0xd7c(%rip),%rsi        # 24fc <seghandler>
    1780:	bf 0b 00 00 00       	mov    $0xb,%edi
    1785:	e8 96 fb ff ff       	callq  1320 <signal@plt>
    178a:	48 8d 35 11 0d 00 00 	lea    0xd11(%rip),%rsi        # 24a2 <bushandler>
    1791:	bf 07 00 00 00       	mov    $0x7,%edi
    1796:	e8 85 fb ff ff       	callq  1320 <signal@plt>
    179b:	48 8d 35 b4 0d 00 00 	lea    0xdb4(%rip),%rsi        # 2556 <illegalhandler>
    17a2:	bf 04 00 00 00       	mov    $0x4,%edi
    17a7:	e8 74 fb ff ff       	callq  1320 <signal@plt>
    17ac:	83 3d 35 5c 00 00 00 	cmpl   $0x0,0x5c35(%rip)        # 73e8 <is_checker>
    17b3:	75 26                	jne    17db <main+0x73>
    17b5:	4c 8d 25 31 2a 00 00 	lea    0x2a31(%rip),%r12        # 41ed <_IO_stdin_used+0x1ed>
    17bc:	48 8b 05 bd 5b 00 00 	mov    0x5bbd(%rip),%rax        # 7380 <stdin@@GLIBC_2.2.5>
    17c3:	48 89 05 06 5c 00 00 	mov    %rax,0x5c06(%rip)        # 73d0 <infile>
    17ca:	41 bd 00 00 00 00    	mov    $0x0,%r13d
    17d0:	41 be 00 00 00 00    	mov    $0x0,%r14d
    17d6:	e9 8d 00 00 00       	jmpq   1868 <main+0x100>
    17db:	48 8d 35 ce 0d 00 00 	lea    0xdce(%rip),%rsi        # 25b0 <sigalrmhandler>
    17e2:	bf 0e 00 00 00       	mov    $0xe,%edi
    17e7:	e8 34 fb ff ff       	callq  1320 <signal@plt>
    17ec:	bf 05 00 00 00       	mov    $0x5,%edi
    17f1:	e8 fa fa ff ff       	callq  12f0 <alarm@plt>
    17f6:	4c 8d 25 e8 29 00 00 	lea    0x29e8(%rip),%r12        # 41e5 <_IO_stdin_used+0x1e5>
    17fd:	eb bd                	jmp    17bc <main+0x54>
    17ff:	48 8b 3b             	mov    (%rbx),%rdi
    1802:	e8 42 fd ff ff       	callq  1549 <usage>
    1807:	48 8d 35 2f 2c 00 00 	lea    0x2c2f(%rip),%rsi        # 443d <_IO_stdin_used+0x43d>
    180e:	48 8b 3d 73 5b 00 00 	mov    0x5b73(%rip),%rdi        # 7388 <optarg@@GLIBC_2.2.5>
    1815:	e8 a6 fb ff ff       	callq  13c0 <fopen@plt>
    181a:	48 89 05 af 5b 00 00 	mov    %rax,0x5baf(%rip)        # 73d0 <infile>
    1821:	48 85 c0             	test   %rax,%rax
    1824:	75 42                	jne    1868 <main+0x100>
    1826:	48 8b 0d 5b 5b 00 00 	mov    0x5b5b(%rip),%rcx        # 7388 <optarg@@GLIBC_2.2.5>
    182d:	48 8d 15 be 29 00 00 	lea    0x29be(%rip),%rdx        # 41f2 <_IO_stdin_used+0x1f2>
    1834:	be 01 00 00 00       	mov    $0x1,%esi
    1839:	48 8b 3d 60 5b 00 00 	mov    0x5b60(%rip),%rdi        # 73a0 <stderr@@GLIBC_2.2.5>
    1840:	e8 db fb ff ff       	callq  1420 <__fprintf_chk@plt>
    1845:	b8 01 00 00 00       	mov    $0x1,%eax
    184a:	e9 db 00 00 00       	jmpq   192a <main+0x1c2>
    184f:	ba 10 00 00 00       	mov    $0x10,%edx
    1854:	be 00 00 00 00       	mov    $0x0,%esi
    1859:	48 8b 3d 28 5b 00 00 	mov    0x5b28(%rip),%rdi        # 7388 <optarg@@GLIBC_2.2.5>
    1860:	e8 7b fb ff ff       	callq  13e0 <strtoul@plt>
    1865:	41 89 c6             	mov    %eax,%r14d
    1868:	4c 89 e2             	mov    %r12,%rdx
    186b:	48 89 de             	mov    %rbx,%rsi
    186e:	89 ef                	mov    %ebp,%edi
    1870:	e8 5b fb ff ff       	callq  13d0 <getopt@plt>
    1875:	3c ff                	cmp    $0xff,%al
    1877:	74 65                	je     18de <main+0x176>
    1879:	0f be c8             	movsbl %al,%ecx
    187c:	83 e8 61             	sub    $0x61,%eax
    187f:	3c 10                	cmp    $0x10,%al
    1881:	77 3b                	ja     18be <main+0x156>
    1883:	0f b6 c0             	movzbl %al,%eax
    1886:	48 8d 15 a3 29 00 00 	lea    0x29a3(%rip),%rdx        # 4230 <_IO_stdin_used+0x230>
    188d:	48 63 04 82          	movslq (%rdx,%rax,4),%rax
    1891:	48 01 d0             	add    %rdx,%rax
    1894:	3e ff e0             	notrack jmpq *%rax
    1897:	ba 0a 00 00 00       	mov    $0xa,%edx
    189c:	be 00 00 00 00       	mov    $0x0,%esi
    18a1:	48 8b 3d e0 5a 00 00 	mov    0x5ae0(%rip),%rdi        # 7388 <optarg@@GLIBC_2.2.5>
    18a8:	e8 a3 fa ff ff       	callq  1350 <strtol@plt>
    18ad:	41 89 c5             	mov    %eax,%r13d
    18b0:	eb b6                	jmp    1868 <main+0x100>
    18b2:	c7 05 ac 5a 00 00 00 	movl   $0x0,0x5aac(%rip)        # 7368 <notify>
    18b9:	00 00 00 
    18bc:	eb aa                	jmp    1868 <main+0x100>
    18be:	89 ca                	mov    %ecx,%edx
    18c0:	48 8d 35 48 29 00 00 	lea    0x2948(%rip),%rsi        # 420f <_IO_stdin_used+0x20f>
    18c7:	bf 01 00 00 00       	mov    $0x1,%edi
    18cc:	b8 00 00 00 00       	mov    $0x0,%eax
    18d1:	e8 da fa ff ff       	callq  13b0 <__printf_chk@plt>
    18d6:	48 8b 3b             	mov    (%rbx),%rdi
    18d9:	e8 6b fc ff ff       	callq  1549 <usage>
    18de:	be 00 00 00 00       	mov    $0x0,%esi
    18e3:	44 89 ef             	mov    %r13d,%edi
    18e6:	e8 fc fc ff ff       	callq  15e7 <initialize_target>
    18eb:	83 3d f6 5a 00 00 00 	cmpl   $0x0,0x5af6(%rip)        # 73e8 <is_checker>
    18f2:	74 09                	je     18fd <main+0x195>
    18f4:	44 39 35 e5 5a 00 00 	cmp    %r14d,0x5ae5(%rip)        # 73e0 <authkey>
    18fb:	75 36                	jne    1933 <main+0x1cb>
    18fd:	8b 15 e1 5a 00 00    	mov    0x5ae1(%rip),%edx        # 73e4 <cookie>
    1903:	48 8d 35 18 29 00 00 	lea    0x2918(%rip),%rsi        # 4222 <_IO_stdin_used+0x222>
    190a:	bf 01 00 00 00       	mov    $0x1,%edi
    190f:	b8 00 00 00 00       	mov    $0x0,%eax
    1914:	e8 97 fa ff ff       	callq  13b0 <__printf_chk@plt>
    1919:	48 8b 3d 40 5a 00 00 	mov    0x5a40(%rip),%rdi        # 7360 <buf_offset>
    1920:	e8 dd 0d 00 00       	callq  2702 <stable_launch>
    1925:	b8 00 00 00 00       	mov    $0x0,%eax
    192a:	5b                   	pop    %rbx
    192b:	5d                   	pop    %rbp
    192c:	41 5c                	pop    %r12
    192e:	41 5d                	pop    %r13
    1930:	41 5e                	pop    %r14
    1932:	c3                   	retq   
    1933:	44 89 f2             	mov    %r14d,%edx
    1936:	48 8d 35 0b 28 00 00 	lea    0x280b(%rip),%rsi        # 4148 <_IO_stdin_used+0x148>
    193d:	bf 01 00 00 00       	mov    $0x1,%edi
    1942:	b8 00 00 00 00       	mov    $0x0,%eax
    1947:	e8 64 fa ff ff       	callq  13b0 <__printf_chk@plt>
    194c:	b8 00 00 00 00       	mov    $0x0,%eax
    1951:	e8 80 07 00 00       	callq  20d6 <check_fail>
    1956:	eb a5                	jmp    18fd <main+0x195>

0000000000001958 <scramble>:
    1958:	f3 0f 1e fa          	endbr64 
    195c:	55                   	push   %rbp
    195d:	48 89 e5             	mov    %rsp,%rbp
    1960:	48 83 e4 f0          	and    $0xfffffffffffffff0,%rsp
    1964:	48 83 ec 30          	sub    $0x30,%rsp
    1968:	64 48 8b 04 25 28 00 	mov    %fs:0x28,%rax
    196f:	00 00 
    1971:	48 89 44 24 28       	mov    %rax,0x28(%rsp)
    1976:	31 c0                	xor    %eax,%eax
    1978:	83 f8 09             	cmp    $0x9,%eax
    197b:	77 12                	ja     198f <scramble+0x37>
    197d:	69 d0 55 e0 00 00    	imul   $0xe055,%eax,%edx
    1983:	01 fa                	add    %edi,%edx
    1985:	89 c1                	mov    %eax,%ecx
    1987:	89 14 8c             	mov    %edx,(%rsp,%rcx,4)
    198a:	83 c0 01             	add    $0x1,%eax
    198d:	eb e9                	jmp    1978 <scramble+0x20>
    198f:	8b 44 24 1c          	mov    0x1c(%rsp),%eax
    1993:	69 c0 50 12 00 00    	imul   $0x1250,%eax,%eax
    1999:	89 44 24 1c          	mov    %eax,0x1c(%rsp)
    199d:	8b 04 24             	mov    (%rsp),%eax
    19a0:	69 c0 21 0b 00 00    	imul   $0xb21,%eax,%eax
    19a6:	89 04 24             	mov    %eax,(%rsp)
    19a9:	8b 44 24 0c          	mov    0xc(%rsp),%eax
    19ad:	69 c0 89 2e 00 00    	imul   $0x2e89,%eax,%eax
    19b3:	89 44 24 0c          	mov    %eax,0xc(%rsp)
    19b7:	8b 44 24 10          	mov    0x10(%rsp),%eax
    19bb:	69 c0 bc 2b 00 00    	imul   $0x2bbc,%eax,%eax
    19c1:	89 44 24 10          	mov    %eax,0x10(%rsp)
    19c5:	8b 04 24             	mov    (%rsp),%eax
    19c8:	69 c0 b6 db 00 00    	imul   $0xdbb6,%eax,%eax
    19ce:	89 04 24             	mov    %eax,(%rsp)
    19d1:	8b 44 24 1c          	mov    0x1c(%rsp),%eax
    19d5:	69 c0 84 e0 00 00    	imul   $0xe084,%eax,%eax
    19db:	89 44 24 1c          	mov    %eax,0x1c(%rsp)
    19df:	8b 44 24 1c          	mov    0x1c(%rsp),%eax
    19e3:	69 c0 48 3c 00 00    	imul   $0x3c48,%eax,%eax
    19e9:	89 44 24 1c          	mov    %eax,0x1c(%rsp)
    19ed:	8b 44 24 20          	mov    0x20(%rsp),%eax
    19f1:	69 c0 d3 05 00 00    	imul   $0x5d3,%eax,%eax
    19f7:	89 44 24 20          	mov    %eax,0x20(%rsp)
    19fb:	8b 44 24 18          	mov    0x18(%rsp),%eax
    19ff:	69 c0 b8 e2 00 00    	imul   $0xe2b8,%eax,%eax
    1a05:	89 44 24 18          	mov    %eax,0x18(%rsp)
    1a09:	8b 44 24 14          	mov    0x14(%rsp),%eax
    1a0d:	69 c0 ef 54 00 00    	imul   $0x54ef,%eax,%eax
    1a13:	89 44 24 14          	mov    %eax,0x14(%rsp)
    1a17:	8b 44 24 10          	mov    0x10(%rsp),%eax
    1a1b:	69 c0 29 ed 00 00    	imul   $0xed29,%eax,%eax
    1a21:	89 44 24 10          	mov    %eax,0x10(%rsp)
    1a25:	8b 44 24 18          	mov    0x18(%rsp),%eax
    1a29:	69 c0 36 83 00 00    	imul   $0x8336,%eax,%eax
    1a2f:	89 44 24 18          	mov    %eax,0x18(%rsp)
    1a33:	8b 44 24 1c          	mov    0x1c(%rsp),%eax
    1a37:	69 c0 c1 87 00 00    	imul   $0x87c1,%eax,%eax
    1a3d:	89 44 24 1c          	mov    %eax,0x1c(%rsp)
    1a41:	8b 44 24 20          	mov    0x20(%rsp),%eax
    1a45:	69 c0 f3 2f 00 00    	imul   $0x2ff3,%eax,%eax
    1a4b:	89 44 24 20          	mov    %eax,0x20(%rsp)
    1a4f:	8b 44 24 14          	mov    0x14(%rsp),%eax
    1a53:	69 c0 c0 e8 00 00    	imul   $0xe8c0,%eax,%eax
    1a59:	89 44 24 14          	mov    %eax,0x14(%rsp)
    1a5d:	8b 44 24 10          	mov    0x10(%rsp),%eax
    1a61:	69 c0 6b 6a 00 00    	imul   $0x6a6b,%eax,%eax
    1a67:	89 44 24 10          	mov    %eax,0x10(%rsp)
    1a6b:	8b 44 24 14          	mov    0x14(%rsp),%eax
    1a6f:	69 c0 98 7b 00 00    	imul   $0x7b98,%eax,%eax
    1a75:	89 44 24 14          	mov    %eax,0x14(%rsp)
    1a79:	8b 44 24 20          	mov    0x20(%rsp),%eax
    1a7d:	69 c0 7e 5e 00 00    	imul   $0x5e7e,%eax,%eax
    1a83:	89 44 24 20          	mov    %eax,0x20(%rsp)
    1a87:	8b 44 24 20          	mov    0x20(%rsp),%eax
    1a8b:	69 c0 e6 80 00 00    	imul   $0x80e6,%eax,%eax
    1a91:	89 44 24 20          	mov    %eax,0x20(%rsp)
    1a95:	8b 44 24 24          	mov    0x24(%rsp),%eax
    1a99:	69 c0 92 c1 00 00    	imul   $0xc192,%eax,%eax
    1a9f:	89 44 24 24          	mov    %eax,0x24(%rsp)
    1aa3:	8b 44 24 10          	mov    0x10(%rsp),%eax
    1aa7:	69 c0 6c d2 00 00    	imul   $0xd26c,%eax,%eax
    1aad:	89 44 24 10          	mov    %eax,0x10(%rsp)
    1ab1:	8b 44 24 04          	mov    0x4(%rsp),%eax
    1ab5:	69 c0 4a 65 00 00    	imul   $0x654a,%eax,%eax
    1abb:	89 44 24 04          	mov    %eax,0x4(%rsp)
    1abf:	8b 44 24 08          	mov    0x8(%rsp),%eax
    1ac3:	69 c0 19 79 00 00    	imul   $0x7919,%eax,%eax
    1ac9:	89 44 24 08          	mov    %eax,0x8(%rsp)
    1acd:	8b 44 24 18          	mov    0x18(%rsp),%eax
    1ad1:	69 c0 49 87 00 00    	imul   $0x8749,%eax,%eax
    1ad7:	89 44 24 18          	mov    %eax,0x18(%rsp)
    1adb:	8b 44 24 08          	mov    0x8(%rsp),%eax
    1adf:	69 c0 b6 f5 00 00    	imul   $0xf5b6,%eax,%eax
    1ae5:	89 44 24 08          	mov    %eax,0x8(%rsp)
    1ae9:	8b 44 24 0c          	mov    0xc(%rsp),%eax
    1aed:	69 c0 2d 56 00 00    	imul   $0x562d,%eax,%eax
    1af3:	89 44 24 0c          	mov    %eax,0xc(%rsp)
    1af7:	8b 44 24 24          	mov    0x24(%rsp),%eax
    1afb:	69 c0 87 a4 00 00    	imul   $0xa487,%eax,%eax
    1b01:	89 44 24 24          	mov    %eax,0x24(%rsp)
    1b05:	8b 04 24             	mov    (%rsp),%eax
    1b08:	69 c0 79 0e 00 00    	imul   $0xe79,%eax,%eax
    1b0e:	89 04 24             	mov    %eax,(%rsp)
    1b11:	8b 44 24 0c          	mov    0xc(%rsp),%eax
    1b15:	69 c0 e1 83 00 00    	imul   $0x83e1,%eax,%eax
    1b1b:	89 44 24 0c          	mov    %eax,0xc(%rsp)
    1b1f:	8b 44 24 14          	mov    0x14(%rsp),%eax
    1b23:	69 c0 5e b6 00 00    	imul   $0xb65e,%eax,%eax
    1b29:	89 44 24 14          	mov    %eax,0x14(%rsp)
    1b2d:	8b 44 24 18          	mov    0x18(%rsp),%eax
    1b31:	69 c0 48 4d 00 00    	imul   $0x4d48,%eax,%eax
    1b37:	89 44 24 18          	mov    %eax,0x18(%rsp)
    1b3b:	8b 44 24 10          	mov    0x10(%rsp),%eax
    1b3f:	69 c0 b1 67 00 00    	imul   $0x67b1,%eax,%eax
    1b45:	89 44 24 10          	mov    %eax,0x10(%rsp)
    1b49:	8b 44 24 0c          	mov    0xc(%rsp),%eax
    1b4d:	69 c0 57 96 00 00    	imul   $0x9657,%eax,%eax
    1b53:	89 44 24 0c          	mov    %eax,0xc(%rsp)
    1b57:	8b 44 24 0c          	mov    0xc(%rsp),%eax
    1b5b:	69 c0 02 73 00 00    	imul   $0x7302,%eax,%eax
    1b61:	89 44 24 0c          	mov    %eax,0xc(%rsp)
    1b65:	8b 44 24 1c          	mov    0x1c(%rsp),%eax
    1b69:	69 c0 69 50 00 00    	imul   $0x5069,%eax,%eax
    1b6f:	89 44 24 1c          	mov    %eax,0x1c(%rsp)
    1b73:	8b 44 24 0c          	mov    0xc(%rsp),%eax
    1b77:	69 c0 da 73 00 00    	imul   $0x73da,%eax,%eax
    1b7d:	89 44 24 0c          	mov    %eax,0xc(%rsp)
    1b81:	8b 44 24 04          	mov    0x4(%rsp),%eax
    1b85:	69 c0 ab d6 00 00    	imul   $0xd6ab,%eax,%eax
    1b8b:	89 44 24 04          	mov    %eax,0x4(%rsp)
    1b8f:	8b 44 24 1c          	mov    0x1c(%rsp),%eax
    1b93:	69 c0 8a 31 00 00    	imul   $0x318a,%eax,%eax
    1b99:	89 44 24 1c          	mov    %eax,0x1c(%rsp)
    1b9d:	8b 44 24 18          	mov    0x18(%rsp),%eax
    1ba1:	69 c0 43 44 00 00    	imul   $0x4443,%eax,%eax
    1ba7:	89 44 24 18          	mov    %eax,0x18(%rsp)
    1bab:	8b 44 24 14          	mov    0x14(%rsp),%eax
    1baf:	69 c0 97 ab 00 00    	imul   $0xab97,%eax,%eax
    1bb5:	89 44 24 14          	mov    %eax,0x14(%rsp)
    1bb9:	8b 44 24 10          	mov    0x10(%rsp),%eax
    1bbd:	69 c0 0c 95 00 00    	imul   $0x950c,%eax,%eax
    1bc3:	89 44 24 10          	mov    %eax,0x10(%rsp)
    1bc7:	8b 44 24 1c          	mov    0x1c(%rsp),%eax
    1bcb:	69 c0 d8 1c 00 00    	imul   $0x1cd8,%eax,%eax
    1bd1:	89 44 24 1c          	mov    %eax,0x1c(%rsp)
    1bd5:	8b 44 24 04          	mov    0x4(%rsp),%eax
    1bd9:	69 c0 27 db 00 00    	imul   $0xdb27,%eax,%eax
    1bdf:	89 44 24 04          	mov    %eax,0x4(%rsp)
    1be3:	8b 44 24 10          	mov    0x10(%rsp),%eax
    1be7:	69 c0 dc 65 00 00    	imul   $0x65dc,%eax,%eax
    1bed:	89 44 24 10          	mov    %eax,0x10(%rsp)
    1bf1:	8b 44 24 18          	mov    0x18(%rsp),%eax
    1bf5:	69 c0 be 69 00 00    	imul   $0x69be,%eax,%eax
    1bfb:	89 44 24 18          	mov    %eax,0x18(%rsp)
    1bff:	8b 44 24 20          	mov    0x20(%rsp),%eax
    1c03:	69 c0 a9 cb 00 00    	imul   $0xcba9,%eax,%eax
    1c09:	89 44 24 20          	mov    %eax,0x20(%rsp)
    1c0d:	8b 04 24             	mov    (%rsp),%eax
    1c10:	69 c0 04 3d 00 00    	imul   $0x3d04,%eax,%eax
    1c16:	89 04 24             	mov    %eax,(%rsp)
    1c19:	8b 44 24 14          	mov    0x14(%rsp),%eax
    1c1d:	69 c0 e7 7f 00 00    	imul   $0x7fe7,%eax,%eax
    1c23:	89 44 24 14          	mov    %eax,0x14(%rsp)
    1c27:	8b 44 24 24          	mov    0x24(%rsp),%eax
    1c2b:	69 c0 89 f9 00 00    	imul   $0xf989,%eax,%eax
    1c31:	89 44 24 24          	mov    %eax,0x24(%rsp)
    1c35:	8b 44 24 20          	mov    0x20(%rsp),%eax
    1c39:	69 c0 99 ea 00 00    	imul   $0xea99,%eax,%eax
    1c3f:	89 44 24 20          	mov    %eax,0x20(%rsp)
    1c43:	8b 44 24 14          	mov    0x14(%rsp),%eax
    1c47:	69 c0 7e 27 00 00    	imul   $0x277e,%eax,%eax
    1c4d:	89 44 24 14          	mov    %eax,0x14(%rsp)
    1c51:	8b 44 24 08          	mov    0x8(%rsp),%eax
    1c55:	69 c0 c8 6c 00 00    	imul   $0x6cc8,%eax,%eax
    1c5b:	89 44 24 08          	mov    %eax,0x8(%rsp)
    1c5f:	8b 44 24 20          	mov    0x20(%rsp),%eax
    1c63:	69 c0 98 37 00 00    	imul   $0x3798,%eax,%eax
    1c69:	89 44 24 20          	mov    %eax,0x20(%rsp)
    1c6d:	8b 44 24 0c          	mov    0xc(%rsp),%eax
    1c71:	69 c0 ef 4d 00 00    	imul   $0x4def,%eax,%eax
    1c77:	89 44 24 0c          	mov    %eax,0xc(%rsp)
    1c7b:	8b 44 24 08          	mov    0x8(%rsp),%eax
    1c7f:	69 c0 26 57 00 00    	imul   $0x5726,%eax,%eax
    1c85:	89 44 24 08          	mov    %eax,0x8(%rsp)
    1c89:	8b 44 24 14          	mov    0x14(%rsp),%eax
    1c8d:	69 c0 d4 b5 00 00    	imul   $0xb5d4,%eax,%eax
    1c93:	89 44 24 14          	mov    %eax,0x14(%rsp)
    1c97:	8b 04 24             	mov    (%rsp),%eax
    1c9a:	69 c0 4a fb 00 00    	imul   $0xfb4a,%eax,%eax
    1ca0:	89 04 24             	mov    %eax,(%rsp)
    1ca3:	8b 44 24 0c          	mov    0xc(%rsp),%eax
    1ca7:	69 c0 c6 25 00 00    	imul   $0x25c6,%eax,%eax
    1cad:	89 44 24 0c          	mov    %eax,0xc(%rsp)
    1cb1:	8b 04 24             	mov    (%rsp),%eax
    1cb4:	69 c0 fe fd 00 00    	imul   $0xfdfe,%eax,%eax
    1cba:	89 04 24             	mov    %eax,(%rsp)
    1cbd:	8b 04 24             	mov    (%rsp),%eax
    1cc0:	69 c0 7a 35 00 00    	imul   $0x357a,%eax,%eax
    1cc6:	89 04 24             	mov    %eax,(%rsp)
    1cc9:	8b 44 24 04          	mov    0x4(%rsp),%eax
    1ccd:	69 c0 dd a7 00 00    	imul   $0xa7dd,%eax,%eax
    1cd3:	89 44 24 04          	mov    %eax,0x4(%rsp)
    1cd7:	8b 44 24 0c          	mov    0xc(%rsp),%eax
    1cdb:	69 c0 c3 1e 00 00    	imul   $0x1ec3,%eax,%eax
    1ce1:	89 44 24 0c          	mov    %eax,0xc(%rsp)
    1ce5:	8b 44 24 10          	mov    0x10(%rsp),%eax
    1ce9:	69 c0 7e 34 00 00    	imul   $0x347e,%eax,%eax
    1cef:	89 44 24 10          	mov    %eax,0x10(%rsp)
    1cf3:	8b 44 24 24          	mov    0x24(%rsp),%eax
    1cf7:	69 c0 3d b8 00 00    	imul   $0xb83d,%eax,%eax
    1cfd:	89 44 24 24          	mov    %eax,0x24(%rsp)
    1d01:	8b 44 24 08          	mov    0x8(%rsp),%eax
    1d05:	69 c0 93 91 00 00    	imul   $0x9193,%eax,%eax
    1d0b:	89 44 24 08          	mov    %eax,0x8(%rsp)
    1d0f:	8b 44 24 10          	mov    0x10(%rsp),%eax
    1d13:	69 c0 fa 77 00 00    	imul   $0x77fa,%eax,%eax
    1d19:	89 44 24 10          	mov    %eax,0x10(%rsp)
    1d1d:	8b 44 24 10          	mov    0x10(%rsp),%eax
    1d21:	69 c0 49 01 00 00    	imul   $0x149,%eax,%eax
    1d27:	89 44 24 10          	mov    %eax,0x10(%rsp)
    1d2b:	8b 44 24 18          	mov    0x18(%rsp),%eax
    1d2f:	69 c0 3c b7 00 00    	imul   $0xb73c,%eax,%eax
    1d35:	89 44 24 18          	mov    %eax,0x18(%rsp)
    1d39:	8b 44 24 1c          	mov    0x1c(%rsp),%eax
    1d3d:	69 c0 14 83 00 00    	imul   $0x8314,%eax,%eax
    1d43:	89 44 24 1c          	mov    %eax,0x1c(%rsp)
    1d47:	8b 44 24 24          	mov    0x24(%rsp),%eax
    1d4b:	69 c0 bd b4 00 00    	imul   $0xb4bd,%eax,%eax
    1d51:	89 44 24 24          	mov    %eax,0x24(%rsp)
    1d55:	8b 04 24             	mov    (%rsp),%eax
    1d58:	69 c0 b1 fe 00 00    	imul   $0xfeb1,%eax,%eax
    1d5e:	89 04 24             	mov    %eax,(%rsp)
    1d61:	8b 44 24 24          	mov    0x24(%rsp),%eax
    1d65:	69 c0 6e c6 00 00    	imul   $0xc66e,%eax,%eax
    1d6b:	89 44 24 24          	mov    %eax,0x24(%rsp)
    1d6f:	8b 44 24 20          	mov    0x20(%rsp),%eax
    1d73:	69 c0 3e 3d 00 00    	imul   $0x3d3e,%eax,%eax
    1d79:	89 44 24 20          	mov    %eax,0x20(%rsp)
    1d7d:	8b 44 24 10          	mov    0x10(%rsp),%eax
    1d81:	69 c0 6c d0 00 00    	imul   $0xd06c,%eax,%eax
    1d87:	89 44 24 10          	mov    %eax,0x10(%rsp)
    1d8b:	8b 44 24 18          	mov    0x18(%rsp),%eax
    1d8f:	69 c0 d7 77 00 00    	imul   $0x77d7,%eax,%eax
    1d95:	89 44 24 18          	mov    %eax,0x18(%rsp)
    1d99:	8b 04 24             	mov    (%rsp),%eax
    1d9c:	69 c0 f9 a2 00 00    	imul   $0xa2f9,%eax,%eax
    1da2:	89 04 24             	mov    %eax,(%rsp)
    1da5:	8b 44 24 18          	mov    0x18(%rsp),%eax
    1da9:	69 c0 0a 07 00 00    	imul   $0x70a,%eax,%eax
    1daf:	89 44 24 18          	mov    %eax,0x18(%rsp)
    1db3:	8b 44 24 10          	mov    0x10(%rsp),%eax
    1db7:	69 c0 95 04 00 00    	imul   $0x495,%eax,%eax
    1dbd:	89 44 24 10          	mov    %eax,0x10(%rsp)
    1dc1:	8b 44 24 18          	mov    0x18(%rsp),%eax
    1dc5:	69 c0 66 60 00 00    	imul   $0x6066,%eax,%eax
    1dcb:	89 44 24 18          	mov    %eax,0x18(%rsp)
    1dcf:	8b 44 24 1c          	mov    0x1c(%rsp),%eax
    1dd3:	69 c0 8f 69 00 00    	imul   $0x698f,%eax,%eax
    1dd9:	89 44 24 1c          	mov    %eax,0x1c(%rsp)
    1ddd:	8b 44 24 1c          	mov    0x1c(%rsp),%eax
    1de1:	69 c0 a8 5f 00 00    	imul   $0x5fa8,%eax,%eax
    1de7:	89 44 24 1c          	mov    %eax,0x1c(%rsp)
    1deb:	8b 44 24 20          	mov    0x20(%rsp),%eax
    1def:	69 c0 0b ab 00 00    	imul   $0xab0b,%eax,%eax
    1df5:	89 44 24 20          	mov    %eax,0x20(%rsp)
    1df9:	8b 44 24 04          	mov    0x4(%rsp),%eax
    1dfd:	69 c0 4b c6 00 00    	imul   $0xc64b,%eax,%eax
    1e03:	89 44 24 04          	mov    %eax,0x4(%rsp)
    1e07:	8b 44 24 18          	mov    0x18(%rsp),%eax
    1e0b:	69 c0 d4 99 00 00    	imul   $0x99d4,%eax,%eax
    1e11:	89 44 24 18          	mov    %eax,0x18(%rsp)
    1e15:	b8 00 00 00 00       	mov    $0x0,%eax
    1e1a:	ba 00 00 00 00       	mov    $0x0,%edx
    1e1f:	83 f8 09             	cmp    $0x9,%eax
    1e22:	77 0c                	ja     1e30 <scramble+0x4d8>
    1e24:	89 c1                	mov    %eax,%ecx
    1e26:	8b 0c 8c             	mov    (%rsp,%rcx,4),%ecx
    1e29:	01 ca                	add    %ecx,%edx
    1e2b:	83 c0 01             	add    $0x1,%eax
    1e2e:	eb ef                	jmp    1e1f <scramble+0x4c7>
    1e30:	48 8b 44 24 28       	mov    0x28(%rsp),%rax
    1e35:	64 48 33 04 25 28 00 	xor    %fs:0x28,%rax
    1e3c:	00 00 
    1e3e:	75 04                	jne    1e44 <scramble+0x4ec>
    1e40:	89 d0                	mov    %edx,%eax
    1e42:	c9                   	leaveq 
    1e43:	c3                   	retq   
    1e44:	e8 77 f4 ff ff       	callq  12c0 <__stack_chk_fail@plt>

0000000000001e49 <getbuf>:
    1e49:	f3 0f 1e fa          	endbr64 
    1e4d:	48 83 ec 38          	sub    $0x38,%rsp
    1e51:	48 89 e7             	mov    %rsp,%rdi
    1e54:	e8 bb 02 00 00       	callq  2114 <Gets>
    1e59:	b8 01 00 00 00       	mov    $0x1,%eax
    1e5e:	48 83 c4 38          	add    $0x38,%rsp
    1e62:	c3                   	retq   

0000000000001e63 <touch1>:
    1e63:	f3 0f 1e fa          	endbr64 
    1e67:	50                   	push   %rax
    1e68:	58                   	pop    %rax
    1e69:	48 83 ec 08          	sub    $0x8,%rsp
    1e6d:	c7 05 65 55 00 00 01 	movl   $0x1,0x5565(%rip)        # 73dc <vlevel>
    1e74:	00 00 00 
    1e77:	48 8d 3d 16 24 00 00 	lea    0x2416(%rip),%rdi        # 4294 <_IO_stdin_used+0x294>
    1e7e:	e8 1d f4 ff ff       	callq  12a0 <puts@plt>
    1e83:	bf 01 00 00 00       	mov    $0x1,%edi
    1e88:	e8 15 05 00 00       	callq  23a2 <validate>
    1e8d:	bf 00 00 00 00       	mov    $0x0,%edi
    1e92:	e8 69 f5 ff ff       	callq  1400 <exit@plt>

0000000000001e97 <touch2>:
    1e97:	f3 0f 1e fa          	endbr64 
    1e9b:	50                   	push   %rax
    1e9c:	58                   	pop    %rax
    1e9d:	48 83 ec 08          	sub    $0x8,%rsp
    1ea1:	89 fa                	mov    %edi,%edx
    1ea3:	c7 05 2f 55 00 00 02 	movl   $0x2,0x552f(%rip)        # 73dc <vlevel>
    1eaa:	00 00 00 
    1ead:	39 3d 31 55 00 00    	cmp    %edi,0x5531(%rip)        # 73e4 <cookie>
    1eb3:	74 2a                	je     1edf <touch2+0x48>
    1eb5:	48 8d 35 24 24 00 00 	lea    0x2424(%rip),%rsi        # 42e0 <_IO_stdin_used+0x2e0>
    1ebc:	bf 01 00 00 00       	mov    $0x1,%edi
    1ec1:	b8 00 00 00 00       	mov    $0x0,%eax
    1ec6:	e8 e5 f4 ff ff       	callq  13b0 <__printf_chk@plt>
    1ecb:	bf 02 00 00 00       	mov    $0x2,%edi
    1ed0:	e8 a1 05 00 00       	callq  2476 <fail>
    1ed5:	bf 00 00 00 00       	mov    $0x0,%edi
    1eda:	e8 21 f5 ff ff       	callq  1400 <exit@plt>
    1edf:	48 8d 35 d2 23 00 00 	lea    0x23d2(%rip),%rsi        # 42b8 <_IO_stdin_used+0x2b8>
    1ee6:	bf 01 00 00 00       	mov    $0x1,%edi
    1eeb:	b8 00 00 00 00       	mov    $0x0,%eax
    1ef0:	e8 bb f4 ff ff       	callq  13b0 <__printf_chk@plt>
    1ef5:	bf 02 00 00 00       	mov    $0x2,%edi
    1efa:	e8 a3 04 00 00       	callq  23a2 <validate>
    1eff:	eb d4                	jmp    1ed5 <touch2+0x3e>

0000000000001f01 <hexmatch>:
    1f01:	f3 0f 1e fa          	endbr64 
    1f05:	55                   	push   %rbp
    1f06:	48 89 e5             	mov    %rsp,%rbp
    1f09:	41 56                	push   %r14
    1f0b:	41 55                	push   %r13
    1f0d:	41 54                	push   %r12
    1f0f:	53                   	push   %rbx
    1f10:	48 83 e4 f0          	and    $0xfffffffffffffff0,%rsp
    1f14:	48 83 c4 80          	add    $0xffffffffffffff80,%rsp
    1f18:	41 89 fc             	mov    %edi,%r12d
    1f1b:	48 89 f3             	mov    %rsi,%rbx
    1f1e:	41 bd 28 00 00 00    	mov    $0x28,%r13d
    1f24:	64 49 8b 45 00       	mov    %fs:0x0(%r13),%rax
    1f29:	48 89 44 24 78       	mov    %rax,0x78(%rsp)
    1f2e:	31 c0                	xor    %eax,%eax
    1f30:	e8 4b f4 ff ff       	callq  1380 <random@plt>
    1f35:	48 89 c1             	mov    %rax,%rcx
    1f38:	48 ba 0b d7 a3 70 3d 	movabs $0xa3d70a3d70a3d70b,%rdx
    1f3f:	0a d7 a3 
    1f42:	48 f7 ea             	imul   %rdx
    1f45:	48 01 ca             	add    %rcx,%rdx
    1f48:	48 c1 fa 06          	sar    $0x6,%rdx
    1f4c:	48 89 c8             	mov    %rcx,%rax
    1f4f:	48 c1 f8 3f          	sar    $0x3f,%rax
    1f53:	48 29 c2             	sub    %rax,%rdx
    1f56:	48 8d 04 92          	lea    (%rdx,%rdx,4),%rax
    1f5a:	48 8d 04 80          	lea    (%rax,%rax,4),%rax
    1f5e:	48 c1 e0 02          	shl    $0x2,%rax
    1f62:	48 29 c1             	sub    %rax,%rcx
    1f65:	4c 8d 34 0c          	lea    (%rsp,%rcx,1),%r14
    1f69:	45 89 e0             	mov    %r12d,%r8d
    1f6c:	48 8d 0d 3e 23 00 00 	lea    0x233e(%rip),%rcx        # 42b1 <_IO_stdin_used+0x2b1>
    1f73:	48 c7 c2 ff ff ff ff 	mov    $0xffffffffffffffff,%rdx
    1f7a:	be 01 00 00 00       	mov    $0x1,%esi
    1f7f:	4c 89 f7             	mov    %r14,%rdi
    1f82:	b8 00 00 00 00       	mov    $0x0,%eax
    1f87:	e8 b4 f4 ff ff       	callq  1440 <__sprintf_chk@plt>
    1f8c:	ba 09 00 00 00       	mov    $0x9,%edx
    1f91:	4c 89 f6             	mov    %r14,%rsi
    1f94:	48 89 df             	mov    %rbx,%rdi
    1f97:	e8 e4 f2 ff ff       	callq  1280 <strncmp@plt>
    1f9c:	85 c0                	test   %eax,%eax
    1f9e:	0f 94 c0             	sete   %al
    1fa1:	48 8b 5c 24 78       	mov    0x78(%rsp),%rbx
    1fa6:	64 49 33 5d 00       	xor    %fs:0x0(%r13),%rbx
    1fab:	75 10                	jne    1fbd <hexmatch+0xbc>
    1fad:	0f b6 c0             	movzbl %al,%eax
    1fb0:	48 8d 65 e0          	lea    -0x20(%rbp),%rsp
    1fb4:	5b                   	pop    %rbx
    1fb5:	41 5c                	pop    %r12
    1fb7:	41 5d                	pop    %r13
    1fb9:	41 5e                	pop    %r14
    1fbb:	5d                   	pop    %rbp
    1fbc:	c3                   	retq   
    1fbd:	e8 fe f2 ff ff       	callq  12c0 <__stack_chk_fail@plt>

0000000000001fc2 <touch3>:
    1fc2:	f3 0f 1e fa          	endbr64 
    1fc6:	53                   	push   %rbx
    1fc7:	48 89 fb             	mov    %rdi,%rbx
    1fca:	c7 05 08 54 00 00 03 	movl   $0x3,0x5408(%rip)        # 73dc <vlevel>
    1fd1:	00 00 00 
    1fd4:	48 89 fe             	mov    %rdi,%rsi
    1fd7:	8b 3d 07 54 00 00    	mov    0x5407(%rip),%edi        # 73e4 <cookie>
    1fdd:	e8 1f ff ff ff       	callq  1f01 <hexmatch>
    1fe2:	85 c0                	test   %eax,%eax
    1fe4:	74 2d                	je     2013 <touch3+0x51>
    1fe6:	48 89 da             	mov    %rbx,%rdx
    1fe9:	48 8d 35 18 23 00 00 	lea    0x2318(%rip),%rsi        # 4308 <_IO_stdin_used+0x308>
    1ff0:	bf 01 00 00 00       	mov    $0x1,%edi
    1ff5:	b8 00 00 00 00       	mov    $0x0,%eax
    1ffa:	e8 b1 f3 ff ff       	callq  13b0 <__printf_chk@plt>
    1fff:	bf 03 00 00 00       	mov    $0x3,%edi
    2004:	e8 99 03 00 00       	callq  23a2 <validate>
    2009:	bf 00 00 00 00       	mov    $0x0,%edi
    200e:	e8 ed f3 ff ff       	callq  1400 <exit@plt>
    2013:	48 89 da             	mov    %rbx,%rdx
    2016:	48 8d 35 13 23 00 00 	lea    0x2313(%rip),%rsi        # 4330 <_IO_stdin_used+0x330>
    201d:	bf 01 00 00 00       	mov    $0x1,%edi
    2022:	b8 00 00 00 00       	mov    $0x0,%eax
    2027:	e8 84 f3 ff ff       	callq  13b0 <__printf_chk@plt>
    202c:	bf 03 00 00 00       	mov    $0x3,%edi
    2031:	e8 40 04 00 00       	callq  2476 <fail>
    2036:	eb d1                	jmp    2009 <touch3+0x47>

0000000000002038 <test>:
    2038:	f3 0f 1e fa          	endbr64 
    203c:	48 83 ec 08          	sub    $0x8,%rsp
    2040:	b8 00 00 00 00       	mov    $0x0,%eax
    2045:	e8 ff fd ff ff       	callq  1e49 <getbuf>
    204a:	89 c2                	mov    %eax,%edx
    204c:	48 8d 35 05 23 00 00 	lea    0x2305(%rip),%rsi        # 4358 <_IO_stdin_used+0x358>
    2053:	bf 01 00 00 00       	mov    $0x1,%edi
    2058:	b8 00 00 00 00       	mov    $0x0,%eax
    205d:	e8 4e f3 ff ff       	callq  13b0 <__printf_chk@plt>
    2062:	48 83 c4 08          	add    $0x8,%rsp
    2066:	c3                   	retq   

0000000000002067 <save_char>:
    2067:	8b 05 97 5f 00 00    	mov    0x5f97(%rip),%eax        # 8004 <gets_cnt>
    206d:	3d ff 03 00 00       	cmp    $0x3ff,%eax
    2072:	7f 4a                	jg     20be <save_char+0x57>
    2074:	89 f9                	mov    %edi,%ecx
    2076:	c0 e9 04             	shr    $0x4,%cl
    2079:	8d 14 40             	lea    (%rax,%rax,2),%edx
    207c:	4c 8d 05 fd 25 00 00 	lea    0x25fd(%rip),%r8        # 4680 <trans_char>
    2083:	83 e1 0f             	and    $0xf,%ecx
    2086:	45 0f b6 0c 08       	movzbl (%r8,%rcx,1),%r9d
    208b:	48 8d 0d 6e 53 00 00 	lea    0x536e(%rip),%rcx        # 7400 <gets_buf>
    2092:	48 63 f2             	movslq %edx,%rsi
    2095:	44 88 0c 31          	mov    %r9b,(%rcx,%rsi,1)
    2099:	8d 72 01             	lea    0x1(%rdx),%esi
    209c:	83 e7 0f             	and    $0xf,%edi
    209f:	41 0f b6 3c 38       	movzbl (%r8,%rdi,1),%edi
    20a4:	48 63 f6             	movslq %esi,%rsi
    20a7:	40 88 3c 31          	mov    %dil,(%rcx,%rsi,1)
    20ab:	83 c2 02             	add    $0x2,%edx
    20ae:	48 63 d2             	movslq %edx,%rdx
    20b1:	c6 04 11 20          	movb   $0x20,(%rcx,%rdx,1)
    20b5:	83 c0 01             	add    $0x1,%eax
    20b8:	89 05 46 5f 00 00    	mov    %eax,0x5f46(%rip)        # 8004 <gets_cnt>
    20be:	c3                   	retq   

00000000000020bf <save_term>:
    20bf:	8b 05 3f 5f 00 00    	mov    0x5f3f(%rip),%eax        # 8004 <gets_cnt>
    20c5:	8d 04 40             	lea    (%rax,%rax,2),%eax
    20c8:	48 98                	cltq   
    20ca:	48 8d 15 2f 53 00 00 	lea    0x532f(%rip),%rdx        # 7400 <gets_buf>
    20d1:	c6 04 02 00          	movb   $0x0,(%rdx,%rax,1)
    20d5:	c3                   	retq   

00000000000020d6 <check_fail>:
    20d6:	f3 0f 1e fa          	endbr64 
    20da:	50                   	push   %rax
    20db:	58                   	pop    %rax
    20dc:	48 83 ec 08          	sub    $0x8,%rsp
    20e0:	0f be 15 21 5f 00 00 	movsbl 0x5f21(%rip),%edx        # 8008 <target_prefix>
    20e7:	4c 8d 05 12 53 00 00 	lea    0x5312(%rip),%r8        # 7400 <gets_buf>
    20ee:	8b 0d e4 52 00 00    	mov    0x52e4(%rip),%ecx        # 73d8 <check_level>
    20f4:	48 8d 35 80 22 00 00 	lea    0x2280(%rip),%rsi        # 437b <_IO_stdin_used+0x37b>
    20fb:	bf 01 00 00 00       	mov    $0x1,%edi
    2100:	b8 00 00 00 00       	mov    $0x0,%eax
    2105:	e8 a6 f2 ff ff       	callq  13b0 <__printf_chk@plt>
    210a:	bf 01 00 00 00       	mov    $0x1,%edi
    210f:	e8 ec f2 ff ff       	callq  1400 <exit@plt>

0000000000002114 <Gets>:
    2114:	f3 0f 1e fa          	endbr64 
    2118:	41 54                	push   %r12
    211a:	55                   	push   %rbp
    211b:	53                   	push   %rbx
    211c:	49 89 fc             	mov    %rdi,%r12
    211f:	c7 05 db 5e 00 00 00 	movl   $0x0,0x5edb(%rip)        # 8004 <gets_cnt>
    2126:	00 00 00 
    2129:	48 89 fb             	mov    %rdi,%rbx
    212c:	48 8b 3d 9d 52 00 00 	mov    0x529d(%rip),%rdi        # 73d0 <infile>
    2133:	e8 f8 f2 ff ff       	callq  1430 <getc@plt>
    2138:	83 f8 ff             	cmp    $0xffffffff,%eax
    213b:	74 18                	je     2155 <Gets+0x41>
    213d:	83 f8 0a             	cmp    $0xa,%eax
    2140:	74 13                	je     2155 <Gets+0x41>
    2142:	48 8d 6b 01          	lea    0x1(%rbx),%rbp
    2146:	88 03                	mov    %al,(%rbx)
    2148:	0f b6 f8             	movzbl %al,%edi
    214b:	e8 17 ff ff ff       	callq  2067 <save_char>
    2150:	48 89 eb             	mov    %rbp,%rbx
    2153:	eb d7                	jmp    212c <Gets+0x18>
    2155:	c6 03 00             	movb   $0x0,(%rbx)
    2158:	b8 00 00 00 00       	mov    $0x0,%eax
    215d:	e8 5d ff ff ff       	callq  20bf <save_term>
    2162:	4c 89 e0             	mov    %r12,%rax
    2165:	5b                   	pop    %rbx
    2166:	5d                   	pop    %rbp
    2167:	41 5c                	pop    %r12
    2169:	c3                   	retq   

000000000000216a <notify_server>:
    216a:	f3 0f 1e fa          	endbr64 
    216e:	4c 8d 54 24 08       	lea    0x8(%rsp),%r10
    2173:	48 83 e4 f0          	and    $0xfffffffffffffff0,%rsp
    2177:	41 ff 72 f8          	pushq  -0x8(%r10)
    217b:	55                   	push   %rbp
    217c:	48 89 e5             	mov    %rsp,%rbp
    217f:	41 54                	push   %r12
    2181:	41 52                	push   %r10
    2183:	53                   	push   %rbx
    2184:	4c 8d 9c 24 00 c0 ff 	lea    -0x4000(%rsp),%r11
    218b:	ff 
    218c:	48 81 ec 00 10 00 00 	sub    $0x1000,%rsp
    2193:	48 83 0c 24 00       	orq    $0x0,(%rsp)
    2198:	4c 39 dc             	cmp    %r11,%rsp
    219b:	75 ef                	jne    218c <notify_server+0x22>
    219d:	48 83 ec 18          	sub    $0x18,%rsp
    21a1:	64 48 8b 04 25 28 00 	mov    %fs:0x28,%rax
    21a8:	00 00 
    21aa:	48 89 45 d8          	mov    %rax,-0x28(%rbp)
    21ae:	31 c0                	xor    %eax,%eax
    21b0:	83 3d 31 52 00 00 00 	cmpl   $0x0,0x5231(%rip)        # 73e8 <is_checker>
    21b7:	0f 85 2c 01 00 00    	jne    22e9 <notify_server+0x17f>
    21bd:	89 fb                	mov    %edi,%ebx
    21bf:	81 3d 3b 5e 00 00 9c 	cmpl   $0x1f9c,0x5e3b(%rip)        # 8004 <gets_cnt>
    21c6:	1f 00 00 
    21c9:	7f 18                	jg     21e3 <notify_server+0x79>
    21cb:	0f be 05 36 5e 00 00 	movsbl 0x5e36(%rip),%eax        # 8008 <target_prefix>
    21d2:	83 3d 8f 51 00 00 00 	cmpl   $0x0,0x518f(%rip)        # 7368 <notify>
    21d9:	74 23                	je     21fe <notify_server+0x94>
    21db:	8b 15 ff 51 00 00    	mov    0x51ff(%rip),%edx        # 73e0 <authkey>
    21e1:	eb 20                	jmp    2203 <notify_server+0x99>
    21e3:	48 8d 35 c6 22 00 00 	lea    0x22c6(%rip),%rsi        # 44b0 <_IO_stdin_used+0x4b0>
    21ea:	bf 01 00 00 00       	mov    $0x1,%edi
    21ef:	e8 bc f1 ff ff       	callq  13b0 <__printf_chk@plt>
    21f4:	bf 01 00 00 00       	mov    $0x1,%edi
    21f9:	e8 02 f2 ff ff       	callq  1400 <exit@plt>
    21fe:	ba ff ff ff ff       	mov    $0xffffffff,%edx
    2203:	85 db                	test   %ebx,%ebx
    2205:	0f 84 9f 00 00 00    	je     22aa <notify_server+0x140>
    220b:	4c 8d 25 84 21 00 00 	lea    0x2184(%rip),%r12        # 4396 <_IO_stdin_used+0x396>
    2212:	48 8d bd d0 bf ff ff 	lea    -0x4030(%rbp),%rdi
    2219:	48 8d 0d e0 51 00 00 	lea    0x51e0(%rip),%rcx        # 7400 <gets_buf>
    2220:	51                   	push   %rcx
    2221:	56                   	push   %rsi
    2222:	50                   	push   %rax
    2223:	52                   	push   %rdx
    2224:	4d 89 e1             	mov    %r12,%r9
    2227:	44 8b 05 e2 4d 00 00 	mov    0x4de2(%rip),%r8d        # 7010 <target_id>
    222e:	48 8d 0d 66 21 00 00 	lea    0x2166(%rip),%rcx        # 439b <_IO_stdin_used+0x39b>
    2235:	ba 00 20 00 00       	mov    $0x2000,%edx
    223a:	be 01 00 00 00       	mov    $0x1,%esi
    223f:	b8 00 00 00 00       	mov    $0x0,%eax
    2244:	e8 f7 f1 ff ff       	callq  1440 <__sprintf_chk@plt>
    2249:	48 83 c4 20          	add    $0x20,%rsp
    224d:	83 3d 14 51 00 00 00 	cmpl   $0x0,0x5114(%rip)        # 7368 <notify>
    2254:	0f 84 b1 00 00 00    	je     230b <notify_server+0x1a1>
    225a:	85 db                	test   %ebx,%ebx
    225c:	74 7f                	je     22dd <notify_server+0x173>
    225e:	48 8d 8d d0 bf ff ff 	lea    -0x4030(%rbp),%rcx
    2265:	4c 8d 8d d0 df ff ff 	lea    -0x2030(%rbp),%r9
    226c:	41 b8 00 00 00 00    	mov    $0x0,%r8d
    2272:	48 8b 15 af 4d 00 00 	mov    0x4daf(%rip),%rdx        # 7028 <lab>
    2279:	48 8b 35 b0 4d 00 00 	mov    0x4db0(%rip),%rsi        # 7030 <course>
    2280:	48 8b 3d 99 4d 00 00 	mov    0x4d99(%rip),%rdi        # 7020 <user_id>
    2287:	e8 83 12 00 00       	callq  350f <driver_post>
    228c:	85 c0                	test   %eax,%eax
    228e:	78 26                	js     22b6 <notify_server+0x14c>
    2290:	48 8d 3d 49 22 00 00 	lea    0x2249(%rip),%rdi        # 44e0 <_IO_stdin_used+0x4e0>
    2297:	e8 04 f0 ff ff       	callq  12a0 <puts@plt>
    229c:	48 8d 3d 20 21 00 00 	lea    0x2120(%rip),%rdi        # 43c3 <_IO_stdin_used+0x3c3>
    22a3:	e8 f8 ef ff ff       	callq  12a0 <puts@plt>
    22a8:	eb 3f                	jmp    22e9 <notify_server+0x17f>
    22aa:	4c 8d 25 e0 20 00 00 	lea    0x20e0(%rip),%r12        # 4391 <_IO_stdin_used+0x391>
    22b1:	e9 5c ff ff ff       	jmpq   2212 <notify_server+0xa8>
    22b6:	48 8d 95 d0 df ff ff 	lea    -0x2030(%rbp),%rdx
    22bd:	48 8d 35 f3 20 00 00 	lea    0x20f3(%rip),%rsi        # 43b7 <_IO_stdin_used+0x3b7>
    22c4:	bf 01 00 00 00       	mov    $0x1,%edi
    22c9:	b8 00 00 00 00       	mov    $0x0,%eax
    22ce:	e8 dd f0 ff ff       	callq  13b0 <__printf_chk@plt>
    22d3:	bf 01 00 00 00       	mov    $0x1,%edi
    22d8:	e8 23 f1 ff ff       	callq  1400 <exit@plt>
    22dd:	48 8d 3d e9 20 00 00 	lea    0x20e9(%rip),%rdi        # 43cd <_IO_stdin_used+0x3cd>
    22e4:	e8 b7 ef ff ff       	callq  12a0 <puts@plt>
    22e9:	48 8b 45 d8          	mov    -0x28(%rbp),%rax
    22ed:	64 48 33 04 25 28 00 	xor    %fs:0x28,%rax
    22f4:	00 00 
    22f6:	0f 85 a1 00 00 00    	jne    239d <notify_server+0x233>
    22fc:	48 8d 65 e8          	lea    -0x18(%rbp),%rsp
    2300:	5b                   	pop    %rbx
    2301:	41 5a                	pop    %r10
    2303:	41 5c                	pop    %r12
    2305:	5d                   	pop    %rbp
    2306:	49 8d 62 f8          	lea    -0x8(%r10),%rsp
    230a:	c3                   	retq   
    230b:	4c 89 e2             	mov    %r12,%rdx
    230e:	48 8d 35 03 22 00 00 	lea    0x2203(%rip),%rsi        # 4518 <_IO_stdin_used+0x518>
    2315:	bf 01 00 00 00       	mov    $0x1,%edi
    231a:	b8 00 00 00 00       	mov    $0x0,%eax
    231f:	e8 8c f0 ff ff       	callq  13b0 <__printf_chk@plt>
    2324:	48 8b 15 f5 4c 00 00 	mov    0x4cf5(%rip),%rdx        # 7020 <user_id>
    232b:	48 8d 35 a2 20 00 00 	lea    0x20a2(%rip),%rsi        # 43d4 <_IO_stdin_used+0x3d4>
    2332:	bf 01 00 00 00       	mov    $0x1,%edi
    2337:	b8 00 00 00 00       	mov    $0x0,%eax
    233c:	e8 6f f0 ff ff       	callq  13b0 <__printf_chk@plt>
    2341:	48 8b 15 e8 4c 00 00 	mov    0x4ce8(%rip),%rdx        # 7030 <course>
    2348:	48 8d 35 92 20 00 00 	lea    0x2092(%rip),%rsi        # 43e1 <_IO_stdin_used+0x3e1>
    234f:	bf 01 00 00 00       	mov    $0x1,%edi
    2354:	b8 00 00 00 00       	mov    $0x0,%eax
    2359:	e8 52 f0 ff ff       	callq  13b0 <__printf_chk@plt>
    235e:	48 8b 15 c3 4c 00 00 	mov    0x4cc3(%rip),%rdx        # 7028 <lab>
    2365:	48 8d 35 81 20 00 00 	lea    0x2081(%rip),%rsi        # 43ed <_IO_stdin_used+0x3ed>
    236c:	bf 01 00 00 00       	mov    $0x1,%edi
    2371:	b8 00 00 00 00       	mov    $0x0,%eax
    2376:	e8 35 f0 ff ff       	callq  13b0 <__printf_chk@plt>
    237b:	48 8d 95 d0 bf ff ff 	lea    -0x4030(%rbp),%rdx
    2382:	48 8d 35 6d 20 00 00 	lea    0x206d(%rip),%rsi        # 43f6 <_IO_stdin_used+0x3f6>
    2389:	bf 01 00 00 00       	mov    $0x1,%edi
    238e:	b8 00 00 00 00       	mov    $0x0,%eax
    2393:	e8 18 f0 ff ff       	callq  13b0 <__printf_chk@plt>
    2398:	e9 4c ff ff ff       	jmpq   22e9 <notify_server+0x17f>
    239d:	e8 1e ef ff ff       	callq  12c0 <__stack_chk_fail@plt>

00000000000023a2 <validate>:
    23a2:	f3 0f 1e fa          	endbr64 
    23a6:	53                   	push   %rbx
    23a7:	89 fb                	mov    %edi,%ebx
    23a9:	83 3d 38 50 00 00 00 	cmpl   $0x0,0x5038(%rip)        # 73e8 <is_checker>
    23b0:	74 72                	je     2424 <validate+0x82>
    23b2:	39 3d 24 50 00 00    	cmp    %edi,0x5024(%rip)        # 73dc <vlevel>
    23b8:	75 32                	jne    23ec <validate+0x4a>
    23ba:	8b 15 18 50 00 00    	mov    0x5018(%rip),%edx        # 73d8 <check_level>
    23c0:	39 fa                	cmp    %edi,%edx
    23c2:	75 3e                	jne    2402 <validate+0x60>
    23c4:	0f be 15 3d 5c 00 00 	movsbl 0x5c3d(%rip),%edx        # 8008 <target_prefix>
    23cb:	4c 8d 05 2e 50 00 00 	lea    0x502e(%rip),%r8        # 7400 <gets_buf>
    23d2:	89 f9                	mov    %edi,%ecx
    23d4:	48 8d 35 45 20 00 00 	lea    0x2045(%rip),%rsi        # 4420 <_IO_stdin_used+0x420>
    23db:	bf 01 00 00 00       	mov    $0x1,%edi
    23e0:	b8 00 00 00 00       	mov    $0x0,%eax
    23e5:	e8 c6 ef ff ff       	callq  13b0 <__printf_chk@plt>
    23ea:	5b                   	pop    %rbx
    23eb:	c3                   	retq   
    23ec:	48 8d 3d 0f 20 00 00 	lea    0x200f(%rip),%rdi        # 4402 <_IO_stdin_used+0x402>
    23f3:	e8 a8 ee ff ff       	callq  12a0 <puts@plt>
    23f8:	b8 00 00 00 00       	mov    $0x0,%eax
    23fd:	e8 d4 fc ff ff       	callq  20d6 <check_fail>
    2402:	89 f9                	mov    %edi,%ecx
    2404:	48 8d 35 35 21 00 00 	lea    0x2135(%rip),%rsi        # 4540 <_IO_stdin_used+0x540>
    240b:	bf 01 00 00 00       	mov    $0x1,%edi
    2410:	b8 00 00 00 00       	mov    $0x0,%eax
    2415:	e8 96 ef ff ff       	callq  13b0 <__printf_chk@plt>
    241a:	b8 00 00 00 00       	mov    $0x0,%eax
    241f:	e8 b2 fc ff ff       	callq  20d6 <check_fail>
    2424:	39 3d b2 4f 00 00    	cmp    %edi,0x4fb2(%rip)        # 73dc <vlevel>
    242a:	74 1a                	je     2446 <validate+0xa4>
    242c:	48 8d 3d cf 1f 00 00 	lea    0x1fcf(%rip),%rdi        # 4402 <_IO_stdin_used+0x402>
    2433:	e8 68 ee ff ff       	callq  12a0 <puts@plt>
    2438:	89 de                	mov    %ebx,%esi
    243a:	bf 00 00 00 00       	mov    $0x0,%edi
    243f:	e8 26 fd ff ff       	callq  216a <notify_server>
    2444:	eb a4                	jmp    23ea <validate+0x48>
    2446:	0f be 0d bb 5b 00 00 	movsbl 0x5bbb(%rip),%ecx        # 8008 <target_prefix>
    244d:	89 fa                	mov    %edi,%edx
    244f:	48 8d 35 12 21 00 00 	lea    0x2112(%rip),%rsi        # 4568 <_IO_stdin_used+0x568>
    2456:	bf 01 00 00 00       	mov    $0x1,%edi
    245b:	b8 00 00 00 00       	mov    $0x0,%eax
    2460:	e8 4b ef ff ff       	callq  13b0 <__printf_chk@plt>
    2465:	89 de                	mov    %ebx,%esi
    2467:	bf 01 00 00 00       	mov    $0x1,%edi
    246c:	e8 f9 fc ff ff       	callq  216a <notify_server>
    2471:	e9 74 ff ff ff       	jmpq   23ea <validate+0x48>

0000000000002476 <fail>:
    2476:	f3 0f 1e fa          	endbr64 
    247a:	48 83 ec 08          	sub    $0x8,%rsp
    247e:	83 3d 63 4f 00 00 00 	cmpl   $0x0,0x4f63(%rip)        # 73e8 <is_checker>
    2485:	75 11                	jne    2498 <fail+0x22>
    2487:	89 fe                	mov    %edi,%esi
    2489:	bf 00 00 00 00       	mov    $0x0,%edi
    248e:	e8 d7 fc ff ff       	callq  216a <notify_server>
    2493:	48 83 c4 08          	add    $0x8,%rsp
    2497:	c3                   	retq   
    2498:	b8 00 00 00 00       	mov    $0x0,%eax
    249d:	e8 34 fc ff ff       	callq  20d6 <check_fail>

00000000000024a2 <bushandler>:
    24a2:	f3 0f 1e fa          	endbr64 
    24a6:	50                   	push   %rax
    24a7:	58                   	pop    %rax
    24a8:	48 83 ec 08          	sub    $0x8,%rsp
    24ac:	83 3d 35 4f 00 00 00 	cmpl   $0x0,0x4f35(%rip)        # 73e8 <is_checker>
    24b3:	74 16                	je     24cb <bushandler+0x29>
    24b5:	48 8d 3d 79 1f 00 00 	lea    0x1f79(%rip),%rdi        # 4435 <_IO_stdin_used+0x435>
    24bc:	e8 df ed ff ff       	callq  12a0 <puts@plt>
    24c1:	b8 00 00 00 00       	mov    $0x0,%eax
    24c6:	e8 0b fc ff ff       	callq  20d6 <check_fail>
    24cb:	48 8d 3d ce 20 00 00 	lea    0x20ce(%rip),%rdi        # 45a0 <_IO_stdin_used+0x5a0>
    24d2:	e8 c9 ed ff ff       	callq  12a0 <puts@plt>
    24d7:	48 8d 3d 61 1f 00 00 	lea    0x1f61(%rip),%rdi        # 443f <_IO_stdin_used+0x43f>
    24de:	e8 bd ed ff ff       	callq  12a0 <puts@plt>
    24e3:	be 00 00 00 00       	mov    $0x0,%esi
    24e8:	bf 00 00 00 00       	mov    $0x0,%edi
    24ed:	e8 78 fc ff ff       	callq  216a <notify_server>
    24f2:	bf 01 00 00 00       	mov    $0x1,%edi
    24f7:	e8 04 ef ff ff       	callq  1400 <exit@plt>

00000000000024fc <seghandler>:
    24fc:	f3 0f 1e fa          	endbr64 
    2500:	50                   	push   %rax
    2501:	58                   	pop    %rax
    2502:	48 83 ec 08          	sub    $0x8,%rsp
    2506:	83 3d db 4e 00 00 00 	cmpl   $0x0,0x4edb(%rip)        # 73e8 <is_checker>
    250d:	74 16                	je     2525 <seghandler+0x29>
    250f:	48 8d 3d 3f 1f 00 00 	lea    0x1f3f(%rip),%rdi        # 4455 <_IO_stdin_used+0x455>
    2516:	e8 85 ed ff ff       	callq  12a0 <puts@plt>
    251b:	b8 00 00 00 00       	mov    $0x0,%eax
    2520:	e8 b1 fb ff ff       	callq  20d6 <check_fail>
    2525:	48 8d 3d 94 20 00 00 	lea    0x2094(%rip),%rdi        # 45c0 <_IO_stdin_used+0x5c0>
    252c:	e8 6f ed ff ff       	callq  12a0 <puts@plt>
    2531:	48 8d 3d 07 1f 00 00 	lea    0x1f07(%rip),%rdi        # 443f <_IO_stdin_used+0x43f>
    2538:	e8 63 ed ff ff       	callq  12a0 <puts@plt>
    253d:	be 00 00 00 00       	mov    $0x0,%esi
    2542:	bf 00 00 00 00       	mov    $0x0,%edi
    2547:	e8 1e fc ff ff       	callq  216a <notify_server>
    254c:	bf 01 00 00 00       	mov    $0x1,%edi
    2551:	e8 aa ee ff ff       	callq  1400 <exit@plt>

0000000000002556 <illegalhandler>:
    2556:	f3 0f 1e fa          	endbr64 
    255a:	50                   	push   %rax
    255b:	58                   	pop    %rax
    255c:	48 83 ec 08          	sub    $0x8,%rsp
    2560:	83 3d 81 4e 00 00 00 	cmpl   $0x0,0x4e81(%rip)        # 73e8 <is_checker>
    2567:	74 16                	je     257f <illegalhandler+0x29>
    2569:	48 8d 3d f8 1e 00 00 	lea    0x1ef8(%rip),%rdi        # 4468 <_IO_stdin_used+0x468>
    2570:	e8 2b ed ff ff       	callq  12a0 <puts@plt>
    2575:	b8 00 00 00 00       	mov    $0x0,%eax
    257a:	e8 57 fb ff ff       	callq  20d6 <check_fail>
    257f:	48 8d 3d 62 20 00 00 	lea    0x2062(%rip),%rdi        # 45e8 <_IO_stdin_used+0x5e8>
    2586:	e8 15 ed ff ff       	callq  12a0 <puts@plt>
    258b:	48 8d 3d ad 1e 00 00 	lea    0x1ead(%rip),%rdi        # 443f <_IO_stdin_used+0x43f>
    2592:	e8 09 ed ff ff       	callq  12a0 <puts@plt>
    2597:	be 00 00 00 00       	mov    $0x0,%esi
    259c:	bf 00 00 00 00       	mov    $0x0,%edi
    25a1:	e8 c4 fb ff ff       	callq  216a <notify_server>
    25a6:	bf 01 00 00 00       	mov    $0x1,%edi
    25ab:	e8 50 ee ff ff       	callq  1400 <exit@plt>

00000000000025b0 <sigalrmhandler>:
    25b0:	f3 0f 1e fa          	endbr64 
    25b4:	50                   	push   %rax
    25b5:	58                   	pop    %rax
    25b6:	48 83 ec 08          	sub    $0x8,%rsp
    25ba:	83 3d 27 4e 00 00 00 	cmpl   $0x0,0x4e27(%rip)        # 73e8 <is_checker>
    25c1:	74 16                	je     25d9 <sigalrmhandler+0x29>
    25c3:	48 8d 3d b2 1e 00 00 	lea    0x1eb2(%rip),%rdi        # 447c <_IO_stdin_used+0x47c>
    25ca:	e8 d1 ec ff ff       	callq  12a0 <puts@plt>
    25cf:	b8 00 00 00 00       	mov    $0x0,%eax
    25d4:	e8 fd fa ff ff       	callq  20d6 <check_fail>
    25d9:	ba 05 00 00 00       	mov    $0x5,%edx
    25de:	48 8d 35 33 20 00 00 	lea    0x2033(%rip),%rsi        # 4618 <_IO_stdin_used+0x618>
    25e5:	bf 01 00 00 00       	mov    $0x1,%edi
    25ea:	b8 00 00 00 00       	mov    $0x0,%eax
    25ef:	e8 bc ed ff ff       	callq  13b0 <__printf_chk@plt>
    25f4:	be 00 00 00 00       	mov    $0x0,%esi
    25f9:	bf 00 00 00 00       	mov    $0x0,%edi
    25fe:	e8 67 fb ff ff       	callq  216a <notify_server>
    2603:	bf 01 00 00 00       	mov    $0x1,%edi
    2608:	e8 f3 ed ff ff       	callq  1400 <exit@plt>

000000000000260d <launch>:
    260d:	f3 0f 1e fa          	endbr64 
    2611:	55                   	push   %rbp
    2612:	48 89 e5             	mov    %rsp,%rbp
    2615:	48 83 ec 10          	sub    $0x10,%rsp
    2619:	48 89 fa             	mov    %rdi,%rdx
    261c:	64 48 8b 04 25 28 00 	mov    %fs:0x28,%rax
    2623:	00 00 
    2625:	48 89 45 f8          	mov    %rax,-0x8(%rbp)
    2629:	31 c0                	xor    %eax,%eax
    262b:	48 8d 47 17          	lea    0x17(%rdi),%rax
    262f:	48 89 c1             	mov    %rax,%rcx
    2632:	48 83 e1 f0          	and    $0xfffffffffffffff0,%rcx
    2636:	48 25 00 f0 ff ff    	and    $0xfffffffffffff000,%rax
    263c:	48 89 e6             	mov    %rsp,%rsi
    263f:	48 29 c6             	sub    %rax,%rsi
    2642:	48 89 f0             	mov    %rsi,%rax
    2645:	48 39 c4             	cmp    %rax,%rsp
    2648:	74 12                	je     265c <launch+0x4f>
    264a:	48 81 ec 00 10 00 00 	sub    $0x1000,%rsp
    2651:	48 83 8c 24 f8 0f 00 	orq    $0x0,0xff8(%rsp)
    2658:	00 00 
    265a:	eb e9                	jmp    2645 <launch+0x38>
    265c:	48 89 c8             	mov    %rcx,%rax
    265f:	25 ff 0f 00 00       	and    $0xfff,%eax
    2664:	48 29 c4             	sub    %rax,%rsp
    2667:	48 85 c0             	test   %rax,%rax
    266a:	74 06                	je     2672 <launch+0x65>
    266c:	48 83 4c 04 f8 00    	orq    $0x0,-0x8(%rsp,%rax,1)
    2672:	48 8d 7c 24 0f       	lea    0xf(%rsp),%rdi
    2677:	48 83 e7 f0          	and    $0xfffffffffffffff0,%rdi
    267b:	be f4 00 00 00       	mov    $0xf4,%esi
    2680:	e8 5b ec ff ff       	callq  12e0 <memset@plt>
    2685:	48 8b 05 f4 4c 00 00 	mov    0x4cf4(%rip),%rax        # 7380 <stdin@@GLIBC_2.2.5>
    268c:	48 39 05 3d 4d 00 00 	cmp    %rax,0x4d3d(%rip)        # 73d0 <infile>
    2693:	74 3a                	je     26cf <launch+0xc2>
    2695:	c7 05 3d 4d 00 00 00 	movl   $0x0,0x4d3d(%rip)        # 73dc <vlevel>
    269c:	00 00 00 
    269f:	b8 00 00 00 00       	mov    $0x0,%eax
    26a4:	e8 8f f9 ff ff       	callq  2038 <test>
    26a9:	83 3d 38 4d 00 00 00 	cmpl   $0x0,0x4d38(%rip)        # 73e8 <is_checker>
    26b0:	75 35                	jne    26e7 <launch+0xda>
    26b2:	48 8d 3d e3 1d 00 00 	lea    0x1de3(%rip),%rdi        # 449c <_IO_stdin_used+0x49c>
    26b9:	e8 e2 eb ff ff       	callq  12a0 <puts@plt>
    26be:	48 8b 45 f8          	mov    -0x8(%rbp),%rax
    26c2:	64 48 33 04 25 28 00 	xor    %fs:0x28,%rax
    26c9:	00 00 
    26cb:	75 30                	jne    26fd <launch+0xf0>
    26cd:	c9                   	leaveq 
    26ce:	c3                   	retq   
    26cf:	48 8d 35 ae 1d 00 00 	lea    0x1dae(%rip),%rsi        # 4484 <_IO_stdin_used+0x484>
    26d6:	bf 01 00 00 00       	mov    $0x1,%edi
    26db:	b8 00 00 00 00       	mov    $0x0,%eax
    26e0:	e8 cb ec ff ff       	callq  13b0 <__printf_chk@plt>
    26e5:	eb ae                	jmp    2695 <launch+0x88>
    26e7:	48 8d 3d a3 1d 00 00 	lea    0x1da3(%rip),%rdi        # 4491 <_IO_stdin_used+0x491>
    26ee:	e8 ad eb ff ff       	callq  12a0 <puts@plt>
    26f3:	b8 00 00 00 00       	mov    $0x0,%eax
    26f8:	e8 d9 f9 ff ff       	callq  20d6 <check_fail>
    26fd:	e8 be eb ff ff       	callq  12c0 <__stack_chk_fail@plt>

0000000000002702 <stable_launch>:
    2702:	f3 0f 1e fa          	endbr64 
    2706:	53                   	push   %rbx
    2707:	48 89 3d ba 4c 00 00 	mov    %rdi,0x4cba(%rip)        # 73c8 <global_offset>
    270e:	41 b9 00 00 00 00    	mov    $0x0,%r9d
    2714:	41 b8 00 00 00 00    	mov    $0x0,%r8d
    271a:	b9 32 01 00 00       	mov    $0x132,%ecx
    271f:	ba 07 00 00 00       	mov    $0x7,%edx
    2724:	be 00 00 10 00       	mov    $0x100000,%esi
    2729:	bf 00 60 58 55       	mov    $0x55586000,%edi
    272e:	e8 9d eb ff ff       	callq  12d0 <mmap@plt>
    2733:	48 89 c3             	mov    %rax,%rbx
    2736:	48 3d 00 60 58 55    	cmp    $0x55586000,%rax
    273c:	75 43                	jne    2781 <stable_launch+0x7f>
    273e:	48 8d 90 f8 ff 0f 00 	lea    0xffff8(%rax),%rdx
    2745:	48 89 15 c4 58 00 00 	mov    %rdx,0x58c4(%rip)        # 8010 <stack_top>
    274c:	48 89 e0             	mov    %rsp,%rax
    274f:	48 89 d4             	mov    %rdx,%rsp
    2752:	48 89 c2             	mov    %rax,%rdx
    2755:	48 89 15 64 4c 00 00 	mov    %rdx,0x4c64(%rip)        # 73c0 <global_save_stack>
    275c:	48 8b 3d 65 4c 00 00 	mov    0x4c65(%rip),%rdi        # 73c8 <global_offset>
    2763:	e8 a5 fe ff ff       	callq  260d <launch>
    2768:	48 8b 05 51 4c 00 00 	mov    0x4c51(%rip),%rax        # 73c0 <global_save_stack>
    276f:	48 89 c4             	mov    %rax,%rsp
    2772:	be 00 00 10 00       	mov    $0x100000,%esi
    2777:	48 89 df             	mov    %rbx,%rdi
    277a:	e8 21 ec ff ff       	callq  13a0 <munmap@plt>
    277f:	5b                   	pop    %rbx
    2780:	c3                   	retq   
    2781:	be 00 00 10 00       	mov    $0x100000,%esi
    2786:	48 89 c7             	mov    %rax,%rdi
    2789:	e8 12 ec ff ff       	callq  13a0 <munmap@plt>
    278e:	b9 00 60 58 55       	mov    $0x55586000,%ecx
    2793:	48 8d 15 b6 1e 00 00 	lea    0x1eb6(%rip),%rdx        # 4650 <_IO_stdin_used+0x650>
    279a:	be 01 00 00 00       	mov    $0x1,%esi
    279f:	48 8b 3d fa 4b 00 00 	mov    0x4bfa(%rip),%rdi        # 73a0 <stderr@@GLIBC_2.2.5>
    27a6:	b8 00 00 00 00       	mov    $0x0,%eax
    27ab:	e8 70 ec ff ff       	callq  1420 <__fprintf_chk@plt>
    27b0:	bf 01 00 00 00       	mov    $0x1,%edi
    27b5:	e8 46 ec ff ff       	callq  1400 <exit@plt>

00000000000027ba <rio_readinitb>:
    27ba:	89 37                	mov    %esi,(%rdi)
    27bc:	c7 47 04 00 00 00 00 	movl   $0x0,0x4(%rdi)
    27c3:	48 8d 47 10          	lea    0x10(%rdi),%rax
    27c7:	48 89 47 08          	mov    %rax,0x8(%rdi)
    27cb:	c3                   	retq   

00000000000027cc <sigalrm_handler>:
    27cc:	f3 0f 1e fa          	endbr64 
    27d0:	50                   	push   %rax
    27d1:	58                   	pop    %rax
    27d2:	48 83 ec 08          	sub    $0x8,%rsp
    27d6:	b9 00 00 00 00       	mov    $0x0,%ecx
    27db:	48 8d 15 ae 1e 00 00 	lea    0x1eae(%rip),%rdx        # 4690 <trans_char+0x10>
    27e2:	be 01 00 00 00       	mov    $0x1,%esi
    27e7:	48 8b 3d b2 4b 00 00 	mov    0x4bb2(%rip),%rdi        # 73a0 <stderr@@GLIBC_2.2.5>
    27ee:	b8 00 00 00 00       	mov    $0x0,%eax
    27f3:	e8 28 ec ff ff       	callq  1420 <__fprintf_chk@plt>
    27f8:	bf 01 00 00 00       	mov    $0x1,%edi
    27fd:	e8 fe eb ff ff       	callq  1400 <exit@plt>

0000000000002802 <rio_writen>:
    2802:	41 55                	push   %r13
    2804:	41 54                	push   %r12
    2806:	55                   	push   %rbp
    2807:	53                   	push   %rbx
    2808:	48 83 ec 08          	sub    $0x8,%rsp
    280c:	41 89 fc             	mov    %edi,%r12d
    280f:	48 89 f5             	mov    %rsi,%rbp
    2812:	49 89 d5             	mov    %rdx,%r13
    2815:	48 89 d3             	mov    %rdx,%rbx
    2818:	eb 06                	jmp    2820 <rio_writen+0x1e>
    281a:	48 29 c3             	sub    %rax,%rbx
    281d:	48 01 c5             	add    %rax,%rbp
    2820:	48 85 db             	test   %rbx,%rbx
    2823:	74 24                	je     2849 <rio_writen+0x47>
    2825:	48 89 da             	mov    %rbx,%rdx
    2828:	48 89 ee             	mov    %rbp,%rsi
    282b:	44 89 e7             	mov    %r12d,%edi
    282e:	e8 7d ea ff ff       	callq  12b0 <write@plt>
    2833:	48 85 c0             	test   %rax,%rax
    2836:	7f e2                	jg     281a <rio_writen+0x18>
    2838:	e8 23 ea ff ff       	callq  1260 <__errno_location@plt>
    283d:	83 38 04             	cmpl   $0x4,(%rax)
    2840:	75 15                	jne    2857 <rio_writen+0x55>
    2842:	b8 00 00 00 00       	mov    $0x0,%eax
    2847:	eb d1                	jmp    281a <rio_writen+0x18>
    2849:	4c 89 e8             	mov    %r13,%rax
    284c:	48 83 c4 08          	add    $0x8,%rsp
    2850:	5b                   	pop    %rbx
    2851:	5d                   	pop    %rbp
    2852:	41 5c                	pop    %r12
    2854:	41 5d                	pop    %r13
    2856:	c3                   	retq   
    2857:	48 c7 c0 ff ff ff ff 	mov    $0xffffffffffffffff,%rax
    285e:	eb ec                	jmp    284c <rio_writen+0x4a>

0000000000002860 <rio_read>:
    2860:	41 55                	push   %r13
    2862:	41 54                	push   %r12
    2864:	55                   	push   %rbp
    2865:	53                   	push   %rbx
    2866:	48 83 ec 08          	sub    $0x8,%rsp
    286a:	48 89 fb             	mov    %rdi,%rbx
    286d:	49 89 f5             	mov    %rsi,%r13
    2870:	49 89 d4             	mov    %rdx,%r12
    2873:	eb 17                	jmp    288c <rio_read+0x2c>
    2875:	e8 e6 e9 ff ff       	callq  1260 <__errno_location@plt>
    287a:	83 38 04             	cmpl   $0x4,(%rax)
    287d:	74 0d                	je     288c <rio_read+0x2c>
    287f:	48 c7 c0 ff ff ff ff 	mov    $0xffffffffffffffff,%rax
    2886:	eb 54                	jmp    28dc <rio_read+0x7c>
    2888:	48 89 6b 08          	mov    %rbp,0x8(%rbx)
    288c:	8b 6b 04             	mov    0x4(%rbx),%ebp
    288f:	85 ed                	test   %ebp,%ebp
    2891:	7f 23                	jg     28b6 <rio_read+0x56>
    2893:	48 8d 6b 10          	lea    0x10(%rbx),%rbp
    2897:	8b 3b                	mov    (%rbx),%edi
    2899:	ba 00 20 00 00       	mov    $0x2000,%edx
    289e:	48 89 ee             	mov    %rbp,%rsi
    28a1:	e8 6a ea ff ff       	callq  1310 <read@plt>
    28a6:	89 43 04             	mov    %eax,0x4(%rbx)
    28a9:	85 c0                	test   %eax,%eax
    28ab:	78 c8                	js     2875 <rio_read+0x15>
    28ad:	75 d9                	jne    2888 <rio_read+0x28>
    28af:	b8 00 00 00 00       	mov    $0x0,%eax
    28b4:	eb 26                	jmp    28dc <rio_read+0x7c>
    28b6:	89 e8                	mov    %ebp,%eax
    28b8:	4c 39 e0             	cmp    %r12,%rax
    28bb:	72 03                	jb     28c0 <rio_read+0x60>
    28bd:	44 89 e5             	mov    %r12d,%ebp
    28c0:	4c 63 e5             	movslq %ebp,%r12
    28c3:	48 8b 73 08          	mov    0x8(%rbx),%rsi
    28c7:	4c 89 e2             	mov    %r12,%rdx
    28ca:	4c 89 ef             	mov    %r13,%rdi
    28cd:	e8 8e ea ff ff       	callq  1360 <memcpy@plt>
    28d2:	4c 01 63 08          	add    %r12,0x8(%rbx)
    28d6:	29 6b 04             	sub    %ebp,0x4(%rbx)
    28d9:	4c 89 e0             	mov    %r12,%rax
    28dc:	48 83 c4 08          	add    $0x8,%rsp
    28e0:	5b                   	pop    %rbx
    28e1:	5d                   	pop    %rbp
    28e2:	41 5c                	pop    %r12
    28e4:	41 5d                	pop    %r13
    28e6:	c3                   	retq   

00000000000028e7 <rio_readlineb>:
    28e7:	41 55                	push   %r13
    28e9:	41 54                	push   %r12
    28eb:	55                   	push   %rbp
    28ec:	53                   	push   %rbx
    28ed:	48 83 ec 18          	sub    $0x18,%rsp
    28f1:	49 89 fd             	mov    %rdi,%r13
    28f4:	48 89 f5             	mov    %rsi,%rbp
    28f7:	49 89 d4             	mov    %rdx,%r12
    28fa:	64 48 8b 04 25 28 00 	mov    %fs:0x28,%rax
    2901:	00 00 
    2903:	48 89 44 24 08       	mov    %rax,0x8(%rsp)
    2908:	31 c0                	xor    %eax,%eax
    290a:	bb 01 00 00 00       	mov    $0x1,%ebx
    290f:	eb 18                	jmp    2929 <rio_readlineb+0x42>
    2911:	85 c0                	test   %eax,%eax
    2913:	75 65                	jne    297a <rio_readlineb+0x93>
    2915:	48 83 fb 01          	cmp    $0x1,%rbx
    2919:	75 3d                	jne    2958 <rio_readlineb+0x71>
    291b:	b8 00 00 00 00       	mov    $0x0,%eax
    2920:	eb 3d                	jmp    295f <rio_readlineb+0x78>
    2922:	48 83 c3 01          	add    $0x1,%rbx
    2926:	48 89 d5             	mov    %rdx,%rbp
    2929:	4c 39 e3             	cmp    %r12,%rbx
    292c:	73 2a                	jae    2958 <rio_readlineb+0x71>
    292e:	48 8d 74 24 07       	lea    0x7(%rsp),%rsi
    2933:	ba 01 00 00 00       	mov    $0x1,%edx
    2938:	4c 89 ef             	mov    %r13,%rdi
    293b:	e8 20 ff ff ff       	callq  2860 <rio_read>
    2940:	83 f8 01             	cmp    $0x1,%eax
    2943:	75 cc                	jne    2911 <rio_readlineb+0x2a>
    2945:	48 8d 55 01          	lea    0x1(%rbp),%rdx
    2949:	0f b6 44 24 07       	movzbl 0x7(%rsp),%eax
    294e:	88 45 00             	mov    %al,0x0(%rbp)
    2951:	3c 0a                	cmp    $0xa,%al
    2953:	75 cd                	jne    2922 <rio_readlineb+0x3b>
    2955:	48 89 d5             	mov    %rdx,%rbp
    2958:	c6 45 00 00          	movb   $0x0,0x0(%rbp)
    295c:	48 89 d8             	mov    %rbx,%rax
    295f:	48 8b 4c 24 08       	mov    0x8(%rsp),%rcx
    2964:	64 48 33 0c 25 28 00 	xor    %fs:0x28,%rcx
    296b:	00 00 
    296d:	75 14                	jne    2983 <rio_readlineb+0x9c>
    296f:	48 83 c4 18          	add    $0x18,%rsp
    2973:	5b                   	pop    %rbx
    2974:	5d                   	pop    %rbp
    2975:	41 5c                	pop    %r12
    2977:	41 5d                	pop    %r13
    2979:	c3                   	retq   
    297a:	48 c7 c0 ff ff ff ff 	mov    $0xffffffffffffffff,%rax
    2981:	eb dc                	jmp    295f <rio_readlineb+0x78>
    2983:	e8 38 e9 ff ff       	callq  12c0 <__stack_chk_fail@plt>

0000000000002988 <urlencode>:
    2988:	41 54                	push   %r12
    298a:	55                   	push   %rbp
    298b:	53                   	push   %rbx
    298c:	48 83 ec 10          	sub    $0x10,%rsp
    2990:	48 89 fb             	mov    %rdi,%rbx
    2993:	48 89 f5             	mov    %rsi,%rbp
    2996:	64 48 8b 04 25 28 00 	mov    %fs:0x28,%rax
    299d:	00 00 
    299f:	48 89 44 24 08       	mov    %rax,0x8(%rsp)
    29a4:	31 c0                	xor    %eax,%eax
    29a6:	48 c7 c1 ff ff ff ff 	mov    $0xffffffffffffffff,%rcx
    29ad:	f2 ae                	repnz scas %es:(%rdi),%al
    29af:	48 f7 d1             	not    %rcx
    29b2:	8d 41 ff             	lea    -0x1(%rcx),%eax
    29b5:	eb 0f                	jmp    29c6 <urlencode+0x3e>
    29b7:	44 88 45 00          	mov    %r8b,0x0(%rbp)
    29bb:	48 8d 6d 01          	lea    0x1(%rbp),%rbp
    29bf:	48 83 c3 01          	add    $0x1,%rbx
    29c3:	44 89 e0             	mov    %r12d,%eax
    29c6:	44 8d 60 ff          	lea    -0x1(%rax),%r12d
    29ca:	85 c0                	test   %eax,%eax
    29cc:	0f 84 a8 00 00 00    	je     2a7a <urlencode+0xf2>
    29d2:	44 0f b6 03          	movzbl (%rbx),%r8d
    29d6:	41 80 f8 2a          	cmp    $0x2a,%r8b
    29da:	0f 94 c2             	sete   %dl
    29dd:	41 80 f8 2d          	cmp    $0x2d,%r8b
    29e1:	0f 94 c0             	sete   %al
    29e4:	08 c2                	or     %al,%dl
    29e6:	75 cf                	jne    29b7 <urlencode+0x2f>
    29e8:	41 80 f8 2e          	cmp    $0x2e,%r8b
    29ec:	74 c9                	je     29b7 <urlencode+0x2f>
    29ee:	41 80 f8 5f          	cmp    $0x5f,%r8b
    29f2:	74 c3                	je     29b7 <urlencode+0x2f>
    29f4:	41 8d 40 d0          	lea    -0x30(%r8),%eax
    29f8:	3c 09                	cmp    $0x9,%al
    29fa:	76 bb                	jbe    29b7 <urlencode+0x2f>
    29fc:	41 8d 40 bf          	lea    -0x41(%r8),%eax
    2a00:	3c 19                	cmp    $0x19,%al
    2a02:	76 b3                	jbe    29b7 <urlencode+0x2f>
    2a04:	41 8d 40 9f          	lea    -0x61(%r8),%eax
    2a08:	3c 19                	cmp    $0x19,%al
    2a0a:	76 ab                	jbe    29b7 <urlencode+0x2f>
    2a0c:	41 80 f8 20          	cmp    $0x20,%r8b
    2a10:	74 56                	je     2a68 <urlencode+0xe0>
    2a12:	41 8d 40 e0          	lea    -0x20(%r8),%eax
    2a16:	3c 5f                	cmp    $0x5f,%al
    2a18:	0f 96 c2             	setbe  %dl
    2a1b:	41 80 f8 09          	cmp    $0x9,%r8b
    2a1f:	0f 94 c0             	sete   %al
    2a22:	08 c2                	or     %al,%dl
    2a24:	74 4f                	je     2a75 <urlencode+0xed>
    2a26:	48 89 e7             	mov    %rsp,%rdi
    2a29:	45 0f b6 c0          	movzbl %r8b,%r8d
    2a2d:	48 8d 0d f1 1c 00 00 	lea    0x1cf1(%rip),%rcx        # 4725 <trans_char+0xa5>
    2a34:	ba 08 00 00 00       	mov    $0x8,%edx
    2a39:	be 01 00 00 00       	mov    $0x1,%esi
    2a3e:	b8 00 00 00 00       	mov    $0x0,%eax
    2a43:	e8 f8 e9 ff ff       	callq  1440 <__sprintf_chk@plt>
    2a48:	0f b6 04 24          	movzbl (%rsp),%eax
    2a4c:	88 45 00             	mov    %al,0x0(%rbp)
    2a4f:	0f b6 44 24 01       	movzbl 0x1(%rsp),%eax
    2a54:	88 45 01             	mov    %al,0x1(%rbp)
    2a57:	0f b6 44 24 02       	movzbl 0x2(%rsp),%eax
    2a5c:	88 45 02             	mov    %al,0x2(%rbp)
    2a5f:	48 8d 6d 03          	lea    0x3(%rbp),%rbp
    2a63:	e9 57 ff ff ff       	jmpq   29bf <urlencode+0x37>
    2a68:	c6 45 00 2b          	movb   $0x2b,0x0(%rbp)
    2a6c:	48 8d 6d 01          	lea    0x1(%rbp),%rbp
    2a70:	e9 4a ff ff ff       	jmpq   29bf <urlencode+0x37>
    2a75:	b8 ff ff ff ff       	mov    $0xffffffff,%eax
    2a7a:	48 8b 74 24 08       	mov    0x8(%rsp),%rsi
    2a7f:	64 48 33 34 25 28 00 	xor    %fs:0x28,%rsi
    2a86:	00 00 
    2a88:	75 09                	jne    2a93 <urlencode+0x10b>
    2a8a:	48 83 c4 10          	add    $0x10,%rsp
    2a8e:	5b                   	pop    %rbx
    2a8f:	5d                   	pop    %rbp
    2a90:	41 5c                	pop    %r12
    2a92:	c3                   	retq   
    2a93:	e8 28 e8 ff ff       	callq  12c0 <__stack_chk_fail@plt>

0000000000002a98 <submitr>:
    2a98:	f3 0f 1e fa          	endbr64 
    2a9c:	4c 8d 54 24 08       	lea    0x8(%rsp),%r10
    2aa1:	48 83 e4 f0          	and    $0xfffffffffffffff0,%rsp
    2aa5:	41 ff 72 f8          	pushq  -0x8(%r10)
    2aa9:	55                   	push   %rbp
    2aaa:	48 89 e5             	mov    %rsp,%rbp
    2aad:	41 57                	push   %r15
    2aaf:	41 56                	push   %r14
    2ab1:	41 55                	push   %r13
    2ab3:	41 54                	push   %r12
    2ab5:	41 52                	push   %r10
    2ab7:	53                   	push   %rbx
    2ab8:	4c 8d 9c 24 00 60 ff 	lea    -0xa000(%rsp),%r11
    2abf:	ff 
    2ac0:	48 81 ec 00 10 00 00 	sub    $0x1000,%rsp
    2ac7:	48 83 0c 24 00       	orq    $0x0,(%rsp)
    2acc:	4c 39 dc             	cmp    %r11,%rsp
    2acf:	75 ef                	jne    2ac0 <submitr+0x28>
    2ad1:	48 83 ec 60          	sub    $0x60,%rsp
    2ad5:	49 89 fd             	mov    %rdi,%r13
    2ad8:	89 b5 7c 5f ff ff    	mov    %esi,-0xa084(%rbp)
    2ade:	48 89 95 88 5f ff ff 	mov    %rdx,-0xa078(%rbp)
    2ae5:	48 89 8d 80 5f ff ff 	mov    %rcx,-0xa080(%rbp)
    2aec:	4c 89 85 70 5f ff ff 	mov    %r8,-0xa090(%rbp)
    2af3:	4d 89 ce             	mov    %r9,%r14
    2af6:	4d 8b 22             	mov    (%r10),%r12
    2af9:	64 48 8b 04 25 28 00 	mov    %fs:0x28,%rax
    2b00:	00 00 
    2b02:	48 89 45 c8          	mov    %rax,-0x38(%rbp)
    2b06:	31 c0                	xor    %eax,%eax
    2b08:	c7 85 9c 5f ff ff 00 	movl   $0x0,-0xa064(%rbp)
    2b0f:	00 00 00 
    2b12:	ba 00 00 00 00       	mov    $0x0,%edx
    2b17:	be 01 00 00 00       	mov    $0x1,%esi
    2b1c:	bf 02 00 00 00       	mov    $0x2,%edi
    2b21:	e8 2a e9 ff ff       	callq  1450 <socket@plt>
    2b26:	85 c0                	test   %eax,%eax
    2b28:	0f 88 c0 02 00 00    	js     2dee <submitr+0x356>
    2b2e:	89 c3                	mov    %eax,%ebx
    2b30:	4c 89 ef             	mov    %r13,%rdi
    2b33:	e8 f8 e7 ff ff       	callq  1330 <gethostbyname@plt>
    2b38:	48 85 c0             	test   %rax,%rax
    2b3b:	0f 84 00 03 00 00    	je     2e41 <submitr+0x3a9>
    2b41:	4c 8d bd a0 5f ff ff 	lea    -0xa060(%rbp),%r15
    2b48:	48 c7 85 a0 5f ff ff 	movq   $0x0,-0xa060(%rbp)
    2b4f:	00 00 00 00 
    2b53:	48 c7 85 a8 5f ff ff 	movq   $0x0,-0xa058(%rbp)
    2b5a:	00 00 00 00 
    2b5e:	66 c7 85 a0 5f ff ff 	movw   $0x2,-0xa060(%rbp)
    2b65:	02 00 
    2b67:	48 63 50 14          	movslq 0x14(%rax),%rdx
    2b6b:	48 8b 40 18          	mov    0x18(%rax),%rax
    2b6f:	48 8b 30             	mov    (%rax),%rsi
    2b72:	48 8d bd a4 5f ff ff 	lea    -0xa05c(%rbp),%rdi
    2b79:	b9 0c 00 00 00       	mov    $0xc,%ecx
    2b7e:	e8 bd e7 ff ff       	callq  1340 <__memmove_chk@plt>
    2b83:	0f b7 b5 7c 5f ff ff 	movzwl -0xa084(%rbp),%esi
    2b8a:	66 c1 c6 08          	rol    $0x8,%si
    2b8e:	66 89 b5 a2 5f ff ff 	mov    %si,-0xa05e(%rbp)
    2b95:	ba 10 00 00 00       	mov    $0x10,%edx
    2b9a:	4c 89 fe             	mov    %r15,%rsi
    2b9d:	89 df                	mov    %ebx,%edi
    2b9f:	e8 6c e8 ff ff       	callq  1410 <connect@plt>
    2ba4:	85 c0                	test   %eax,%eax
    2ba6:	0f 88 07 03 00 00    	js     2eb3 <submitr+0x41b>
    2bac:	49 c7 c0 ff ff ff ff 	mov    $0xffffffffffffffff,%r8
    2bb3:	b8 00 00 00 00       	mov    $0x0,%eax
    2bb8:	4c 89 c1             	mov    %r8,%rcx
    2bbb:	4c 89 f7             	mov    %r14,%rdi
    2bbe:	f2 ae                	repnz scas %es:(%rdi),%al
    2bc0:	48 89 ca             	mov    %rcx,%rdx
    2bc3:	48 f7 d2             	not    %rdx
    2bc6:	4c 89 c1             	mov    %r8,%rcx
    2bc9:	48 8b bd 88 5f ff ff 	mov    -0xa078(%rbp),%rdi
    2bd0:	f2 ae                	repnz scas %es:(%rdi),%al
    2bd2:	48 f7 d1             	not    %rcx
    2bd5:	48 89 ce             	mov    %rcx,%rsi
    2bd8:	4c 89 c1             	mov    %r8,%rcx
    2bdb:	48 8b bd 80 5f ff ff 	mov    -0xa080(%rbp),%rdi
    2be2:	f2 ae                	repnz scas %es:(%rdi),%al
    2be4:	48 f7 d1             	not    %rcx
    2be7:	48 8d 74 0e fe       	lea    -0x2(%rsi,%rcx,1),%rsi
    2bec:	4c 89 c1             	mov    %r8,%rcx
    2bef:	48 8b bd 70 5f ff ff 	mov    -0xa090(%rbp),%rdi
    2bf6:	f2 ae                	repnz scas %es:(%rdi),%al
    2bf8:	48 89 c8             	mov    %rcx,%rax
    2bfb:	48 f7 d0             	not    %rax
    2bfe:	48 8d 4c 06 ff       	lea    -0x1(%rsi,%rax,1),%rcx
    2c03:	48 8d 44 52 fd       	lea    -0x3(%rdx,%rdx,2),%rax
    2c08:	48 8d 84 01 80 00 00 	lea    0x80(%rcx,%rax,1),%rax
    2c0f:	00 
    2c10:	48 3d 00 20 00 00    	cmp    $0x2000,%rax
    2c16:	0f 87 fa 02 00 00    	ja     2f16 <submitr+0x47e>
    2c1c:	48 8d b5 c0 9f ff ff 	lea    -0x6040(%rbp),%rsi
    2c23:	b9 00 04 00 00       	mov    $0x400,%ecx
    2c28:	b8 00 00 00 00       	mov    $0x0,%eax
    2c2d:	48 89 f7             	mov    %rsi,%rdi
    2c30:	f3 48 ab             	rep stos %rax,%es:(%rdi)
    2c33:	4c 89 f7             	mov    %r14,%rdi
    2c36:	e8 4d fd ff ff       	callq  2988 <urlencode>
    2c3b:	85 c0                	test   %eax,%eax
    2c3d:	0f 88 4c 03 00 00    	js     2f8f <submitr+0x4f7>
    2c43:	4c 8d bd c0 7f ff ff 	lea    -0x8040(%rbp),%r15
    2c4a:	41 55                	push   %r13
    2c4c:	48 8d 85 c0 9f ff ff 	lea    -0x6040(%rbp),%rax
    2c53:	50                   	push   %rax
    2c54:	4c 8b 8d 88 5f ff ff 	mov    -0xa078(%rbp),%r9
    2c5b:	4c 8b 85 80 5f ff ff 	mov    -0xa080(%rbp),%r8
    2c62:	48 8d 0d 4f 1a 00 00 	lea    0x1a4f(%rip),%rcx        # 46b8 <trans_char+0x38>
    2c69:	ba 00 20 00 00       	mov    $0x2000,%edx
    2c6e:	be 01 00 00 00       	mov    $0x1,%esi
    2c73:	4c 89 ff             	mov    %r15,%rdi
    2c76:	b8 00 00 00 00       	mov    $0x0,%eax
    2c7b:	e8 c0 e7 ff ff       	callq  1440 <__sprintf_chk@plt>
    2c80:	48 c7 c1 ff ff ff ff 	mov    $0xffffffffffffffff,%rcx
    2c87:	b8 00 00 00 00       	mov    $0x0,%eax
    2c8c:	4c 89 ff             	mov    %r15,%rdi
    2c8f:	f2 ae                	repnz scas %es:(%rdi),%al
    2c91:	48 f7 d1             	not    %rcx
    2c94:	48 8d 51 ff          	lea    -0x1(%rcx),%rdx
    2c98:	4c 89 fe             	mov    %r15,%rsi
    2c9b:	89 df                	mov    %ebx,%edi
    2c9d:	e8 60 fb ff ff       	callq  2802 <rio_writen>
    2ca2:	48 83 c4 10          	add    $0x10,%rsp
    2ca6:	48 85 c0             	test   %rax,%rax
    2ca9:	0f 88 76 03 00 00    	js     3025 <submitr+0x58d>
    2caf:	4c 8d ad b0 5f ff ff 	lea    -0xa050(%rbp),%r13
    2cb6:	89 de                	mov    %ebx,%esi
    2cb8:	4c 89 ef             	mov    %r13,%rdi
    2cbb:	e8 fa fa ff ff       	callq  27ba <rio_readinitb>
    2cc0:	48 8d b5 c0 7f ff ff 	lea    -0x8040(%rbp),%rsi
    2cc7:	ba 00 20 00 00       	mov    $0x2000,%edx
    2ccc:	4c 89 ef             	mov    %r13,%rdi
    2ccf:	e8 13 fc ff ff       	callq  28e7 <rio_readlineb>
    2cd4:	48 85 c0             	test   %rax,%rax
    2cd7:	0f 8e c0 03 00 00    	jle    309d <submitr+0x605>
    2cdd:	48 8d 8d 9c 5f ff ff 	lea    -0xa064(%rbp),%rcx
    2ce4:	48 8d 95 c0 bf ff ff 	lea    -0x4040(%rbp),%rdx
    2ceb:	48 8d bd c0 7f ff ff 	lea    -0x8040(%rbp),%rdi
    2cf2:	4c 8d 85 c0 df ff ff 	lea    -0x2040(%rbp),%r8
    2cf9:	48 8d 35 2c 1a 00 00 	lea    0x1a2c(%rip),%rsi        # 472c <trans_char+0xac>
    2d00:	b8 00 00 00 00       	mov    $0x0,%eax
    2d05:	e8 86 e6 ff ff       	callq  1390 <__isoc99_sscanf@plt>
    2d0a:	48 8d b5 c0 7f ff ff 	lea    -0x8040(%rbp),%rsi
    2d11:	b9 03 00 00 00       	mov    $0x3,%ecx
    2d16:	48 8d 3d 26 1a 00 00 	lea    0x1a26(%rip),%rdi        # 4743 <trans_char+0xc3>
    2d1d:	f3 a6                	repz cmpsb %es:(%rdi),%ds:(%rsi)
    2d1f:	0f 97 c0             	seta   %al
    2d22:	1c 00                	sbb    $0x0,%al
    2d24:	84 c0                	test   %al,%al
    2d26:	0f 84 f9 03 00 00    	je     3125 <submitr+0x68d>
    2d2c:	48 8d b5 c0 7f ff ff 	lea    -0x8040(%rbp),%rsi
    2d33:	48 8d bd b0 5f ff ff 	lea    -0xa050(%rbp),%rdi
    2d3a:	ba 00 20 00 00       	mov    $0x2000,%edx
    2d3f:	e8 a3 fb ff ff       	callq  28e7 <rio_readlineb>
    2d44:	48 85 c0             	test   %rax,%rax
    2d47:	7f c1                	jg     2d0a <submitr+0x272>
    2d49:	48 b8 45 72 72 6f 72 	movabs $0x43203a726f727245,%rax
    2d50:	3a 20 43 
    2d53:	48 ba 6c 69 65 6e 74 	movabs $0x6e7520746e65696c,%rdx
    2d5a:	20 75 6e 
    2d5d:	49 89 04 24          	mov    %rax,(%r12)
    2d61:	49 89 54 24 08       	mov    %rdx,0x8(%r12)
    2d66:	48 b8 61 62 6c 65 20 	movabs $0x206f7420656c6261,%rax
    2d6d:	74 6f 20 
    2d70:	48 ba 72 65 61 64 20 	movabs $0x6165682064616572,%rdx
    2d77:	68 65 61 
    2d7a:	49 89 44 24 10       	mov    %rax,0x10(%r12)
    2d7f:	49 89 54 24 18       	mov    %rdx,0x18(%r12)
    2d84:	48 b8 64 65 72 73 20 	movabs $0x6f72662073726564,%rax
    2d8b:	66 72 6f 
    2d8e:	48 ba 6d 20 74 68 65 	movabs $0x657220656874206d,%rdx
    2d95:	20 72 65 
    2d98:	49 89 44 24 20       	mov    %rax,0x20(%r12)
    2d9d:	49 89 54 24 28       	mov    %rdx,0x28(%r12)
    2da2:	48 b8 73 75 6c 74 20 	movabs $0x72657320746c7573,%rax
    2da9:	73 65 72 
    2dac:	49 89 44 24 30       	mov    %rax,0x30(%r12)
    2db1:	41 c7 44 24 38 76 65 	movl   $0x726576,0x38(%r12)
    2db8:	72 00 
    2dba:	89 df                	mov    %ebx,%edi
    2dbc:	e8 3f e5 ff ff       	callq  1300 <close@plt>
    2dc1:	b8 ff ff ff ff       	mov    $0xffffffff,%eax
    2dc6:	48 8b 5d c8          	mov    -0x38(%rbp),%rbx
    2dca:	64 48 33 1c 25 28 00 	xor    %fs:0x28,%rbx
    2dd1:	00 00 
    2dd3:	0f 85 cc 04 00 00    	jne    32a5 <submitr+0x80d>
    2dd9:	48 8d 65 d0          	lea    -0x30(%rbp),%rsp
    2ddd:	5b                   	pop    %rbx
    2dde:	41 5a                	pop    %r10
    2de0:	41 5c                	pop    %r12
    2de2:	41 5d                	pop    %r13
    2de4:	41 5e                	pop    %r14
    2de6:	41 5f                	pop    %r15
    2de8:	5d                   	pop    %rbp
    2de9:	49 8d 62 f8          	lea    -0x8(%r10),%rsp
    2ded:	c3                   	retq   
    2dee:	48 b8 45 72 72 6f 72 	movabs $0x43203a726f727245,%rax
    2df5:	3a 20 43 
    2df8:	48 ba 6c 69 65 6e 74 	movabs $0x6e7520746e65696c,%rdx
    2dff:	20 75 6e 
    2e02:	49 89 04 24          	mov    %rax,(%r12)
    2e06:	49 89 54 24 08       	mov    %rdx,0x8(%r12)
    2e0b:	48 b8 61 62 6c 65 20 	movabs $0x206f7420656c6261,%rax
    2e12:	74 6f 20 
    2e15:	48 ba 63 72 65 61 74 	movabs $0x7320657461657263,%rdx
    2e1c:	65 20 73 
    2e1f:	49 89 44 24 10       	mov    %rax,0x10(%r12)
    2e24:	49 89 54 24 18       	mov    %rdx,0x18(%r12)
    2e29:	41 c7 44 24 20 6f 63 	movl   $0x656b636f,0x20(%r12)
    2e30:	6b 65 
    2e32:	66 41 c7 44 24 24 74 	movw   $0x74,0x24(%r12)
    2e39:	00 
    2e3a:	b8 ff ff ff ff       	mov    $0xffffffff,%eax
    2e3f:	eb 85                	jmp    2dc6 <submitr+0x32e>
    2e41:	48 b8 45 72 72 6f 72 	movabs $0x44203a726f727245,%rax
    2e48:	3a 20 44 
    2e4b:	48 ba 4e 53 20 69 73 	movabs $0x6e7520736920534e,%rdx
    2e52:	20 75 6e 
    2e55:	49 89 04 24          	mov    %rax,(%r12)
    2e59:	49 89 54 24 08       	mov    %rdx,0x8(%r12)
    2e5e:	48 b8 61 62 6c 65 20 	movabs $0x206f7420656c6261,%rax
    2e65:	74 6f 20 
    2e68:	48 ba 72 65 73 6f 6c 	movabs $0x2065766c6f736572,%rdx
    2e6f:	76 65 20 
    2e72:	49 89 44 24 10       	mov    %rax,0x10(%r12)
    2e77:	49 89 54 24 18       	mov    %rdx,0x18(%r12)
    2e7c:	48 b8 73 65 72 76 65 	movabs $0x6120726576726573,%rax
    2e83:	72 20 61 
    2e86:	49 89 44 24 20       	mov    %rax,0x20(%r12)
    2e8b:	41 c7 44 24 28 64 64 	movl   $0x65726464,0x28(%r12)
    2e92:	72 65 
    2e94:	66 41 c7 44 24 2c 73 	movw   $0x7373,0x2c(%r12)
    2e9b:	73 
    2e9c:	41 c6 44 24 2e 00    	movb   $0x0,0x2e(%r12)
    2ea2:	89 df                	mov    %ebx,%edi
    2ea4:	e8 57 e4 ff ff       	callq  1300 <close@plt>
    2ea9:	b8 ff ff ff ff       	mov    $0xffffffff,%eax
    2eae:	e9 13 ff ff ff       	jmpq   2dc6 <submitr+0x32e>
    2eb3:	48 b8 45 72 72 6f 72 	movabs $0x55203a726f727245,%rax
    2eba:	3a 20 55 
    2ebd:	48 ba 6e 61 62 6c 65 	movabs $0x6f7420656c62616e,%rdx
    2ec4:	20 74 6f 
    2ec7:	49 89 04 24          	mov    %rax,(%r12)
    2ecb:	49 89 54 24 08       	mov    %rdx,0x8(%r12)
    2ed0:	48 b8 20 63 6f 6e 6e 	movabs $0x7463656e6e6f6320,%rax
    2ed7:	65 63 74 
    2eda:	48 ba 20 74 6f 20 74 	movabs $0x20656874206f7420,%rdx
    2ee1:	68 65 20 
    2ee4:	49 89 44 24 10       	mov    %rax,0x10(%r12)
    2ee9:	49 89 54 24 18       	mov    %rdx,0x18(%r12)
    2eee:	41 c7 44 24 20 73 65 	movl   $0x76726573,0x20(%r12)
    2ef5:	72 76 
    2ef7:	66 41 c7 44 24 24 65 	movw   $0x7265,0x24(%r12)
    2efe:	72 
    2eff:	41 c6 44 24 26 00    	movb   $0x0,0x26(%r12)
    2f05:	89 df                	mov    %ebx,%edi
    2f07:	e8 f4 e3 ff ff       	callq  1300 <close@plt>
    2f0c:	b8 ff ff ff ff       	mov    $0xffffffff,%eax
    2f11:	e9 b0 fe ff ff       	jmpq   2dc6 <submitr+0x32e>
    2f16:	48 b8 45 72 72 6f 72 	movabs $0x52203a726f727245,%rax
    2f1d:	3a 20 52 
    2f20:	48 ba 65 73 75 6c 74 	movabs $0x747320746c757365,%rdx
    2f27:	20 73 74 
    2f2a:	49 89 04 24          	mov    %rax,(%r12)
    2f2e:	49 89 54 24 08       	mov    %rdx,0x8(%r12)
    2f33:	48 b8 72 69 6e 67 20 	movabs $0x6f6f7420676e6972,%rax
    2f3a:	74 6f 6f 
    2f3d:	48 ba 20 6c 61 72 67 	movabs $0x202e656772616c20,%rdx
    2f44:	65 2e 20 
    2f47:	49 89 44 24 10       	mov    %rax,0x10(%r12)
    2f4c:	49 89 54 24 18       	mov    %rdx,0x18(%r12)
    2f51:	48 b8 49 6e 63 72 65 	movabs $0x6573616572636e49,%rax
    2f58:	61 73 65 
    2f5b:	48 ba 20 53 55 42 4d 	movabs $0x5254494d42555320,%rdx
    2f62:	49 54 52 
    2f65:	49 89 44 24 20       	mov    %rax,0x20(%r12)
    2f6a:	49 89 54 24 28       	mov    %rdx,0x28(%r12)
    2f6f:	48 b8 5f 4d 41 58 42 	movabs $0x46554258414d5f,%rax
    2f76:	55 46 00 
    2f79:	49 89 44 24 30       	mov    %rax,0x30(%r12)
    2f7e:	89 df                	mov    %ebx,%edi
    2f80:	e8 7b e3 ff ff       	callq  1300 <close@plt>
    2f85:	b8 ff ff ff ff       	mov    $0xffffffff,%eax
    2f8a:	e9 37 fe ff ff       	jmpq   2dc6 <submitr+0x32e>
    2f8f:	48 b8 45 72 72 6f 72 	movabs $0x52203a726f727245,%rax
    2f96:	3a 20 52 
    2f99:	48 ba 65 73 75 6c 74 	movabs $0x747320746c757365,%rdx
    2fa0:	20 73 74 
    2fa3:	49 89 04 24          	mov    %rax,(%r12)
    2fa7:	49 89 54 24 08       	mov    %rdx,0x8(%r12)
    2fac:	48 b8 72 69 6e 67 20 	movabs $0x6e6f6320676e6972,%rax
    2fb3:	63 6f 6e 
    2fb6:	48 ba 74 61 69 6e 73 	movabs $0x6e6120736e696174,%rdx
    2fbd:	20 61 6e 
    2fc0:	49 89 44 24 10       	mov    %rax,0x10(%r12)
    2fc5:	49 89 54 24 18       	mov    %rdx,0x18(%r12)
    2fca:	48 b8 20 69 6c 6c 65 	movabs $0x6c6167656c6c6920,%rax
    2fd1:	67 61 6c 
    2fd4:	48 ba 20 6f 72 20 75 	movabs $0x72706e7520726f20,%rdx
    2fdb:	6e 70 72 
    2fde:	49 89 44 24 20       	mov    %rax,0x20(%r12)
    2fe3:	49 89 54 24 28       	mov    %rdx,0x28(%r12)
    2fe8:	48 b8 69 6e 74 61 62 	movabs $0x20656c6261746e69,%rax
    2fef:	6c 65 20 
    2ff2:	48 ba 63 68 61 72 61 	movabs $0x6574636172616863,%rdx
    2ff9:	63 74 65 
    2ffc:	49 89 44 24 30       	mov    %rax,0x30(%r12)
    3001:	49 89 54 24 38       	mov    %rdx,0x38(%r12)
    3006:	66 41 c7 44 24 40 72 	movw   $0x2e72,0x40(%r12)
    300d:	2e 
    300e:	41 c6 44 24 42 00    	movb   $0x0,0x42(%r12)
    3014:	89 df                	mov    %ebx,%edi
    3016:	e8 e5 e2 ff ff       	callq  1300 <close@plt>
    301b:	b8 ff ff ff ff       	mov    $0xffffffff,%eax
    3020:	e9 a1 fd ff ff       	jmpq   2dc6 <submitr+0x32e>
    3025:	48 b8 45 72 72 6f 72 	movabs $0x43203a726f727245,%rax
    302c:	3a 20 43 
    302f:	48 ba 6c 69 65 6e 74 	movabs $0x6e7520746e65696c,%rdx
    3036:	20 75 6e 
    3039:	49 89 04 24          	mov    %rax,(%r12)
    303d:	49 89 54 24 08       	mov    %rdx,0x8(%r12)
    3042:	48 b8 61 62 6c 65 20 	movabs $0x206f7420656c6261,%rax
    3049:	74 6f 20 
    304c:	48 ba 77 72 69 74 65 	movabs $0x6f74206574697277,%rdx
    3053:	20 74 6f 
    3056:	49 89 44 24 10       	mov    %rax,0x10(%r12)
    305b:	49 89 54 24 18       	mov    %rdx,0x18(%r12)
    3060:	48 b8 20 74 68 65 20 	movabs $0x7365722065687420,%rax
    3067:	72 65 73 
    306a:	48 ba 75 6c 74 20 73 	movabs $0x7672657320746c75,%rdx
    3071:	65 72 76 
    3074:	49 89 44 24 20       	mov    %rax,0x20(%r12)
    3079:	49 89 54 24 28       	mov    %rdx,0x28(%r12)
    307e:	66 41 c7 44 24 30 65 	movw   $0x7265,0x30(%r12)
    3085:	72 
    3086:	41 c6 44 24 32 00    	movb   $0x0,0x32(%r12)
    308c:	89 df                	mov    %ebx,%edi
    308e:	e8 6d e2 ff ff       	callq  1300 <close@plt>
    3093:	b8 ff ff ff ff       	mov    $0xffffffff,%eax
    3098:	e9 29 fd ff ff       	jmpq   2dc6 <submitr+0x32e>
    309d:	48 b8 45 72 72 6f 72 	movabs $0x43203a726f727245,%rax
    30a4:	3a 20 43 
    30a7:	48 ba 6c 69 65 6e 74 	movabs $0x6e7520746e65696c,%rdx
    30ae:	20 75 6e 
    30b1:	49 89 04 24          	mov    %rax,(%r12)
    30b5:	49 89 54 24 08       	mov    %rdx,0x8(%r12)
    30ba:	48 b8 61 62 6c 65 20 	movabs $0x206f7420656c6261,%rax
    30c1:	74 6f 20 
    30c4:	48 ba 72 65 61 64 20 	movabs $0x7269662064616572,%rdx
    30cb:	66 69 72 
    30ce:	49 89 44 24 10       	mov    %rax,0x10(%r12)
    30d3:	49 89 54 24 18       	mov    %rdx,0x18(%r12)
    30d8:	48 b8 73 74 20 68 65 	movabs $0x6564616568207473,%rax
    30df:	61 64 65 
    30e2:	48 ba 72 20 66 72 6f 	movabs $0x72206d6f72662072,%rdx
    30e9:	6d 20 72 
    30ec:	49 89 44 24 20       	mov    %rax,0x20(%r12)
    30f1:	49 89 54 24 28       	mov    %rdx,0x28(%r12)
    30f6:	48 b8 65 73 75 6c 74 	movabs $0x657320746c757365,%rax
    30fd:	20 73 65 
    3100:	49 89 44 24 30       	mov    %rax,0x30(%r12)
    3105:	41 c7 44 24 38 72 76 	movl   $0x72657672,0x38(%r12)
    310c:	65 72 
    310e:	41 c6 44 24 3c 00    	movb   $0x0,0x3c(%r12)
    3114:	89 df                	mov    %ebx,%edi
    3116:	e8 e5 e1 ff ff       	callq  1300 <close@plt>
    311b:	b8 ff ff ff ff       	mov    $0xffffffff,%eax
    3120:	e9 a1 fc ff ff       	jmpq   2dc6 <submitr+0x32e>
    3125:	48 8d b5 c0 7f ff ff 	lea    -0x8040(%rbp),%rsi
    312c:	48 8d bd b0 5f ff ff 	lea    -0xa050(%rbp),%rdi
    3133:	ba 00 20 00 00       	mov    $0x2000,%edx
    3138:	e8 aa f7 ff ff       	callq  28e7 <rio_readlineb>
    313d:	48 85 c0             	test   %rax,%rax
    3140:	0f 8e 97 00 00 00    	jle    31dd <submitr+0x745>
    3146:	44 8b 85 9c 5f ff ff 	mov    -0xa064(%rbp),%r8d
    314d:	41 81 f8 c8 00 00 00 	cmp    $0xc8,%r8d
    3154:	0f 85 13 01 00 00    	jne    326d <submitr+0x7d5>
    315a:	48 8d b5 c0 7f ff ff 	lea    -0x8040(%rbp),%rsi
    3161:	4c 89 e7             	mov    %r12,%rdi
    3164:	e8 27 e1 ff ff       	callq  1290 <strcpy@plt>
    3169:	89 df                	mov    %ebx,%edi
    316b:	e8 90 e1 ff ff       	callq  1300 <close@plt>
    3170:	b9 04 00 00 00       	mov    $0x4,%ecx
    3175:	48 8d 3d c1 15 00 00 	lea    0x15c1(%rip),%rdi        # 473d <trans_char+0xbd>
    317c:	4c 89 e6             	mov    %r12,%rsi
    317f:	f3 a6                	repz cmpsb %es:(%rdi),%ds:(%rsi)
    3181:	0f 97 c0             	seta   %al
    3184:	1c 00                	sbb    $0x0,%al
    3186:	0f be c0             	movsbl %al,%eax
    3189:	85 c0                	test   %eax,%eax
    318b:	0f 84 35 fc ff ff    	je     2dc6 <submitr+0x32e>
    3191:	b9 05 00 00 00       	mov    $0x5,%ecx
    3196:	48 8d 3d a4 15 00 00 	lea    0x15a4(%rip),%rdi        # 4741 <trans_char+0xc1>
    319d:	4c 89 e6             	mov    %r12,%rsi
    31a0:	f3 a6                	repz cmpsb %es:(%rdi),%ds:(%rsi)
    31a2:	0f 97 c0             	seta   %al
    31a5:	1c 00                	sbb    $0x0,%al
    31a7:	0f be c0             	movsbl %al,%eax
    31aa:	85 c0                	test   %eax,%eax
    31ac:	0f 84 14 fc ff ff    	je     2dc6 <submitr+0x32e>
    31b2:	b9 03 00 00 00       	mov    $0x3,%ecx
    31b7:	48 8d 3d 88 15 00 00 	lea    0x1588(%rip),%rdi        # 4746 <trans_char+0xc6>
    31be:	4c 89 e6             	mov    %r12,%rsi
    31c1:	f3 a6                	repz cmpsb %es:(%rdi),%ds:(%rsi)
    31c3:	0f 97 c0             	seta   %al
    31c6:	1c 00                	sbb    $0x0,%al
    31c8:	0f be c0             	movsbl %al,%eax
    31cb:	85 c0                	test   %eax,%eax
    31cd:	0f 84 f3 fb ff ff    	je     2dc6 <submitr+0x32e>
    31d3:	b8 ff ff ff ff       	mov    $0xffffffff,%eax
    31d8:	e9 e9 fb ff ff       	jmpq   2dc6 <submitr+0x32e>
    31dd:	48 b8 45 72 72 6f 72 	movabs $0x43203a726f727245,%rax
    31e4:	3a 20 43 
    31e7:	48 ba 6c 69 65 6e 74 	movabs $0x6e7520746e65696c,%rdx
    31ee:	20 75 6e 
    31f1:	49 89 04 24          	mov    %rax,(%r12)
    31f5:	49 89 54 24 08       	mov    %rdx,0x8(%r12)
    31fa:	48 b8 61 62 6c 65 20 	movabs $0x206f7420656c6261,%rax
    3201:	74 6f 20 
    3204:	48 ba 72 65 61 64 20 	movabs $0x6174732064616572,%rdx
    320b:	73 74 61 
    320e:	49 89 44 24 10       	mov    %rax,0x10(%r12)
    3213:	49 89 54 24 18       	mov    %rdx,0x18(%r12)
    3218:	48 b8 74 75 73 20 6d 	movabs $0x7373656d20737574,%rax
    321f:	65 73 73 
    3222:	48 ba 61 67 65 20 66 	movabs $0x6d6f726620656761,%rdx
    3229:	72 6f 6d 
    322c:	49 89 44 24 20       	mov    %rax,0x20(%r12)
    3231:	49 89 54 24 28       	mov    %rdx,0x28(%r12)
    3236:	48 b8 20 72 65 73 75 	movabs $0x20746c7573657220,%rax
    323d:	6c 74 20 
    3240:	49 89 44 24 30       	mov    %rax,0x30(%r12)
    3245:	41 c7 44 24 38 73 65 	movl   $0x76726573,0x38(%r12)
    324c:	72 76 
    324e:	66 41 c7 44 24 3c 65 	movw   $0x7265,0x3c(%r12)
    3255:	72 
    3256:	41 c6 44 24 3e 00    	movb   $0x0,0x3e(%r12)
    325c:	89 df                	mov    %ebx,%edi
    325e:	e8 9d e0 ff ff       	callq  1300 <close@plt>
    3263:	b8 ff ff ff ff       	mov    $0xffffffff,%eax
    3268:	e9 59 fb ff ff       	jmpq   2dc6 <submitr+0x32e>
    326d:	4c 8d 8d c0 df ff ff 	lea    -0x2040(%rbp),%r9
    3274:	48 8d 0d 7d 14 00 00 	lea    0x147d(%rip),%rcx        # 46f8 <trans_char+0x78>
    327b:	48 c7 c2 ff ff ff ff 	mov    $0xffffffffffffffff,%rdx
    3282:	be 01 00 00 00       	mov    $0x1,%esi
    3287:	4c 89 e7             	mov    %r12,%rdi
    328a:	b8 00 00 00 00       	mov    $0x0,%eax
    328f:	e8 ac e1 ff ff       	callq  1440 <__sprintf_chk@plt>
    3294:	89 df                	mov    %ebx,%edi
    3296:	e8 65 e0 ff ff       	callq  1300 <close@plt>
    329b:	b8 ff ff ff ff       	mov    $0xffffffff,%eax
    32a0:	e9 21 fb ff ff       	jmpq   2dc6 <submitr+0x32e>
    32a5:	e8 16 e0 ff ff       	callq  12c0 <__stack_chk_fail@plt>

00000000000032aa <init_timeout>:
    32aa:	f3 0f 1e fa          	endbr64 
    32ae:	85 ff                	test   %edi,%edi
    32b0:	74 26                	je     32d8 <init_timeout+0x2e>
    32b2:	53                   	push   %rbx
    32b3:	89 fb                	mov    %edi,%ebx
    32b5:	78 1a                	js     32d1 <init_timeout+0x27>
    32b7:	48 8d 35 0e f5 ff ff 	lea    -0xaf2(%rip),%rsi        # 27cc <sigalrm_handler>
    32be:	bf 0e 00 00 00       	mov    $0xe,%edi
    32c3:	e8 58 e0 ff ff       	callq  1320 <signal@plt>
    32c8:	89 df                	mov    %ebx,%edi
    32ca:	e8 21 e0 ff ff       	callq  12f0 <alarm@plt>
    32cf:	5b                   	pop    %rbx
    32d0:	c3                   	retq   
    32d1:	bb 00 00 00 00       	mov    $0x0,%ebx
    32d6:	eb df                	jmp    32b7 <init_timeout+0xd>
    32d8:	c3                   	retq   

00000000000032d9 <init_driver>:
    32d9:	f3 0f 1e fa          	endbr64 
    32dd:	55                   	push   %rbp
    32de:	48 89 e5             	mov    %rsp,%rbp
    32e1:	41 55                	push   %r13
    32e3:	41 54                	push   %r12
    32e5:	53                   	push   %rbx
    32e6:	48 83 e4 f0          	and    $0xfffffffffffffff0,%rsp
    32ea:	48 83 ec 20          	sub    $0x20,%rsp
    32ee:	49 89 fc             	mov    %rdi,%r12
    32f1:	64 48 8b 04 25 28 00 	mov    %fs:0x28,%rax
    32f8:	00 00 
    32fa:	48 89 44 24 18       	mov    %rax,0x18(%rsp)
    32ff:	31 c0                	xor    %eax,%eax
    3301:	be 01 00 00 00       	mov    $0x1,%esi
    3306:	bf 0d 00 00 00       	mov    $0xd,%edi
    330b:	e8 10 e0 ff ff       	callq  1320 <signal@plt>
    3310:	be 01 00 00 00       	mov    $0x1,%esi
    3315:	bf 1d 00 00 00       	mov    $0x1d,%edi
    331a:	e8 01 e0 ff ff       	callq  1320 <signal@plt>
    331f:	be 01 00 00 00       	mov    $0x1,%esi
    3324:	bf 1d 00 00 00       	mov    $0x1d,%edi
    3329:	e8 f2 df ff ff       	callq  1320 <signal@plt>
    332e:	ba 00 00 00 00       	mov    $0x0,%edx
    3333:	be 01 00 00 00       	mov    $0x1,%esi
    3338:	bf 02 00 00 00       	mov    $0x2,%edi
    333d:	e8 0e e1 ff ff       	callq  1450 <socket@plt>
    3342:	85 c0                	test   %eax,%eax
    3344:	0f 88 a1 00 00 00    	js     33eb <init_driver+0x112>
    334a:	89 c3                	mov    %eax,%ebx
    334c:	48 8d 3d f6 13 00 00 	lea    0x13f6(%rip),%rdi        # 4749 <trans_char+0xc9>
    3353:	e8 d8 df ff ff       	callq  1330 <gethostbyname@plt>
    3358:	48 85 c0             	test   %rax,%rax
    335b:	0f 84 dd 00 00 00    	je     343e <init_driver+0x165>
    3361:	49 89 e5             	mov    %rsp,%r13
    3364:	48 c7 04 24 00 00 00 	movq   $0x0,(%rsp)
    336b:	00 
    336c:	48 c7 44 24 08 00 00 	movq   $0x0,0x8(%rsp)
    3373:	00 00 
    3375:	66 c7 04 24 02 00    	movw   $0x2,(%rsp)
    337b:	48 63 50 14          	movslq 0x14(%rax),%rdx
    337f:	48 8b 40 18          	mov    0x18(%rax),%rax
    3383:	48 8b 30             	mov    (%rax),%rsi
    3386:	48 8d 7c 24 04       	lea    0x4(%rsp),%rdi
    338b:	b9 0c 00 00 00       	mov    $0xc,%ecx
    3390:	e8 ab df ff ff       	callq  1340 <__memmove_chk@plt>
    3395:	66 c7 44 24 02 14 25 	movw   $0x2514,0x2(%rsp)
    339c:	ba 10 00 00 00       	mov    $0x10,%edx
    33a1:	4c 89 ee             	mov    %r13,%rsi
    33a4:	89 df                	mov    %ebx,%edi
    33a6:	e8 65 e0 ff ff       	callq  1410 <connect@plt>
    33ab:	85 c0                	test   %eax,%eax
    33ad:	0f 88 fd 00 00 00    	js     34b0 <init_driver+0x1d7>
    33b3:	89 df                	mov    %ebx,%edi
    33b5:	e8 46 df ff ff       	callq  1300 <close@plt>
    33ba:	66 41 c7 04 24 4f 4b 	movw   $0x4b4f,(%r12)
    33c1:	41 c6 44 24 02 00    	movb   $0x0,0x2(%r12)
    33c7:	b8 00 00 00 00       	mov    $0x0,%eax
    33cc:	48 8b 4c 24 18       	mov    0x18(%rsp),%rcx
    33d1:	64 48 33 0c 25 28 00 	xor    %fs:0x28,%rcx
    33d8:	00 00 
    33da:	0f 85 2a 01 00 00    	jne    350a <init_driver+0x231>
    33e0:	48 8d 65 e8          	lea    -0x18(%rbp),%rsp
    33e4:	5b                   	pop    %rbx
    33e5:	41 5c                	pop    %r12
    33e7:	41 5d                	pop    %r13
    33e9:	5d                   	pop    %rbp
    33ea:	c3                   	retq   
    33eb:	48 b8 45 72 72 6f 72 	movabs $0x43203a726f727245,%rax
    33f2:	3a 20 43 
    33f5:	48 ba 6c 69 65 6e 74 	movabs $0x6e7520746e65696c,%rdx
    33fc:	20 75 6e 
    33ff:	49 89 04 24          	mov    %rax,(%r12)
    3403:	49 89 54 24 08       	mov    %rdx,0x8(%r12)
    3408:	48 b8 61 62 6c 65 20 	movabs $0x206f7420656c6261,%rax
    340f:	74 6f 20 
    3412:	48 ba 63 72 65 61 74 	movabs $0x7320657461657263,%rdx
    3419:	65 20 73 
    341c:	49 89 44 24 10       	mov    %rax,0x10(%r12)
    3421:	49 89 54 24 18       	mov    %rdx,0x18(%r12)
    3426:	41 c7 44 24 20 6f 63 	movl   $0x656b636f,0x20(%r12)
    342d:	6b 65 
    342f:	66 41 c7 44 24 24 74 	movw   $0x74,0x24(%r12)
    3436:	00 
    3437:	b8 ff ff ff ff       	mov    $0xffffffff,%eax
    343c:	eb 8e                	jmp    33cc <init_driver+0xf3>
    343e:	48 b8 45 72 72 6f 72 	movabs $0x44203a726f727245,%rax
    3445:	3a 20 44 
    3448:	48 ba 4e 53 20 69 73 	movabs $0x6e7520736920534e,%rdx
    344f:	20 75 6e 
    3452:	49 89 04 24          	mov    %rax,(%r12)
    3456:	49 89 54 24 08       	mov    %rdx,0x8(%r12)
    345b:	48 b8 61 62 6c 65 20 	movabs $0x206f7420656c6261,%rax
    3462:	74 6f 20 
    3465:	48 ba 72 65 73 6f 6c 	movabs $0x2065766c6f736572,%rdx
    346c:	76 65 20 
    346f:	49 89 44 24 10       	mov    %rax,0x10(%r12)
    3474:	49 89 54 24 18       	mov    %rdx,0x18(%r12)
    3479:	48 b8 73 65 72 76 65 	movabs $0x6120726576726573,%rax
    3480:	72 20 61 
    3483:	49 89 44 24 20       	mov    %rax,0x20(%r12)
    3488:	41 c7 44 24 28 64 64 	movl   $0x65726464,0x28(%r12)
    348f:	72 65 
    3491:	66 41 c7 44 24 2c 73 	movw   $0x7373,0x2c(%r12)
    3498:	73 
    3499:	41 c6 44 24 2e 00    	movb   $0x0,0x2e(%r12)
    349f:	89 df                	mov    %ebx,%edi
    34a1:	e8 5a de ff ff       	callq  1300 <close@plt>
    34a6:	b8 ff ff ff ff       	mov    $0xffffffff,%eax
    34ab:	e9 1c ff ff ff       	jmpq   33cc <init_driver+0xf3>
    34b0:	48 b8 45 72 72 6f 72 	movabs $0x55203a726f727245,%rax
    34b7:	3a 20 55 
    34ba:	48 ba 6e 61 62 6c 65 	movabs $0x6f7420656c62616e,%rdx
    34c1:	20 74 6f 
    34c4:	49 89 04 24          	mov    %rax,(%r12)
    34c8:	49 89 54 24 08       	mov    %rdx,0x8(%r12)
    34cd:	48 b8 20 63 6f 6e 6e 	movabs $0x7463656e6e6f6320,%rax
    34d4:	65 63 74 
    34d7:	48 ba 20 74 6f 20 73 	movabs $0x76726573206f7420,%rdx
    34de:	65 72 76 
    34e1:	49 89 44 24 10       	mov    %rax,0x10(%r12)
    34e6:	49 89 54 24 18       	mov    %rdx,0x18(%r12)
    34eb:	66 41 c7 44 24 20 65 	movw   $0x7265,0x20(%r12)
    34f2:	72 
    34f3:	41 c6 44 24 22 00    	movb   $0x0,0x22(%r12)
    34f9:	89 df                	mov    %ebx,%edi
    34fb:	e8 00 de ff ff       	callq  1300 <close@plt>
    3500:	b8 ff ff ff ff       	mov    $0xffffffff,%eax
    3505:	e9 c2 fe ff ff       	jmpq   33cc <init_driver+0xf3>
    350a:	e8 b1 dd ff ff       	callq  12c0 <__stack_chk_fail@plt>

000000000000350f <driver_post>:
    350f:	f3 0f 1e fa          	endbr64 
    3513:	53                   	push   %rbx
    3514:	4c 89 cb             	mov    %r9,%rbx
    3517:	45 85 c0             	test   %r8d,%r8d
    351a:	75 18                	jne    3534 <driver_post+0x25>
    351c:	48 85 ff             	test   %rdi,%rdi
    351f:	74 05                	je     3526 <driver_post+0x17>
    3521:	80 3f 00             	cmpb   $0x0,(%rdi)
    3524:	75 37                	jne    355d <driver_post+0x4e>
    3526:	66 c7 03 4f 4b       	movw   $0x4b4f,(%rbx)
    352b:	c6 43 02 00          	movb   $0x0,0x2(%rbx)
    352f:	44 89 c0             	mov    %r8d,%eax
    3532:	5b                   	pop    %rbx
    3533:	c3                   	retq   
    3534:	48 89 ca             	mov    %rcx,%rdx
    3537:	48 8d 35 16 12 00 00 	lea    0x1216(%rip),%rsi        # 4754 <trans_char+0xd4>
    353e:	bf 01 00 00 00       	mov    $0x1,%edi
    3543:	b8 00 00 00 00       	mov    $0x0,%eax
    3548:	e8 63 de ff ff       	callq  13b0 <__printf_chk@plt>
    354d:	66 c7 03 4f 4b       	movw   $0x4b4f,(%rbx)
    3552:	c6 43 02 00          	movb   $0x0,0x2(%rbx)
    3556:	b8 00 00 00 00       	mov    $0x0,%eax
    355b:	eb d5                	jmp    3532 <driver_post+0x23>
    355d:	48 83 ec 08          	sub    $0x8,%rsp
    3561:	41 51                	push   %r9
    3563:	49 89 c9             	mov    %rcx,%r9
    3566:	49 89 d0             	mov    %rdx,%r8
    3569:	48 89 f9             	mov    %rdi,%rcx
    356c:	48 89 f2             	mov    %rsi,%rdx
    356f:	be 25 14 00 00       	mov    $0x1425,%esi
    3574:	48 8d 3d ce 11 00 00 	lea    0x11ce(%rip),%rdi        # 4749 <trans_char+0xc9>
    357b:	e8 18 f5 ff ff       	callq  2a98 <submitr>
    3580:	48 83 c4 10          	add    $0x10,%rsp
    3584:	eb ac                	jmp    3532 <driver_post+0x23>

0000000000003586 <check>:
    3586:	f3 0f 1e fa          	endbr64 
    358a:	89 f8                	mov    %edi,%eax
    358c:	c1 e8 1c             	shr    $0x1c,%eax
    358f:	74 1d                	je     35ae <check+0x28>
    3591:	b9 00 00 00 00       	mov    $0x0,%ecx
    3596:	83 f9 1f             	cmp    $0x1f,%ecx
    3599:	7f 0d                	jg     35a8 <check+0x22>
    359b:	89 f8                	mov    %edi,%eax
    359d:	d3 e8                	shr    %cl,%eax
    359f:	3c 0a                	cmp    $0xa,%al
    35a1:	74 11                	je     35b4 <check+0x2e>
    35a3:	83 c1 08             	add    $0x8,%ecx
    35a6:	eb ee                	jmp    3596 <check+0x10>
    35a8:	b8 01 00 00 00       	mov    $0x1,%eax
    35ad:	c3                   	retq   
    35ae:	b8 00 00 00 00       	mov    $0x0,%eax
    35b3:	c3                   	retq   
    35b4:	b8 00 00 00 00       	mov    $0x0,%eax
    35b9:	c3                   	retq   

00000000000035ba <gencookie>:
    35ba:	f3 0f 1e fa          	endbr64 
    35be:	53                   	push   %rbx
    35bf:	83 c7 01             	add    $0x1,%edi
    35c2:	e8 a9 dc ff ff       	callq  1270 <srandom@plt>
    35c7:	e8 b4 dd ff ff       	callq  1380 <random@plt>
    35cc:	48 89 c7             	mov    %rax,%rdi
    35cf:	89 c3                	mov    %eax,%ebx
    35d1:	e8 b0 ff ff ff       	callq  3586 <check>
    35d6:	85 c0                	test   %eax,%eax
    35d8:	74 ed                	je     35c7 <gencookie+0xd>
    35da:	89 d8                	mov    %ebx,%eax
    35dc:	5b                   	pop    %rbx
    35dd:	c3                   	retq   
    35de:	66 90                	xchg   %ax,%ax

00000000000035e0 <__libc_csu_init>:
    35e0:	f3 0f 1e fa          	endbr64 
    35e4:	41 57                	push   %r15
    35e6:	4c 8d 3d cb 36 00 00 	lea    0x36cb(%rip),%r15        # 6cb8 <__frame_dummy_init_array_entry>
    35ed:	41 56                	push   %r14
    35ef:	49 89 d6             	mov    %rdx,%r14
    35f2:	41 55                	push   %r13
    35f4:	49 89 f5             	mov    %rsi,%r13
    35f7:	41 54                	push   %r12
    35f9:	41 89 fc             	mov    %edi,%r12d
    35fc:	55                   	push   %rbp
    35fd:	48 8d 2d bc 36 00 00 	lea    0x36bc(%rip),%rbp        # 6cc0 <__do_global_dtors_aux_fini_array_entry>
    3604:	53                   	push   %rbx
    3605:	4c 29 fd             	sub    %r15,%rbp
    3608:	48 83 ec 08          	sub    $0x8,%rsp
    360c:	e8 ef d9 ff ff       	callq  1000 <_init>
    3611:	48 c1 fd 03          	sar    $0x3,%rbp
    3615:	74 1f                	je     3636 <__libc_csu_init+0x56>
    3617:	31 db                	xor    %ebx,%ebx
    3619:	0f 1f 80 00 00 00 00 	nopl   0x0(%rax)
    3620:	4c 89 f2             	mov    %r14,%rdx
    3623:	4c 89 ee             	mov    %r13,%rsi
    3626:	44 89 e7             	mov    %r12d,%edi
    3629:	41 ff 14 df          	callq  *(%r15,%rbx,8)
    362d:	48 83 c3 01          	add    $0x1,%rbx
    3631:	48 39 dd             	cmp    %rbx,%rbp
    3634:	75 ea                	jne    3620 <__libc_csu_init+0x40>
    3636:	48 83 c4 08          	add    $0x8,%rsp
    363a:	5b                   	pop    %rbx
    363b:	5d                   	pop    %rbp
    363c:	41 5c                	pop    %r12
    363e:	41 5d                	pop    %r13
    3640:	41 5e                	pop    %r14
    3642:	41 5f                	pop    %r15
    3644:	c3                   	retq   
    3645:	66 66 2e 0f 1f 84 00 	data16 nopw %cs:0x0(%rax,%rax,1)
    364c:	00 00 00 00 

0000000000003650 <__libc_csu_fini>:
    3650:	f3 0f 1e fa          	endbr64 
    3654:	c3                   	retq   

Disassembly of section .fini:

0000000000003658 <_fini>:
    3658:	f3 0f 1e fa          	endbr64 
    365c:	48 83 ec 08          	sub    $0x8,%rsp
    3660:	48 83 c4 08          	add    $0x8,%rsp
    3664:	c3                   	retq   
